; ModuleID = 'three_threads.9cf17d79-cgu.0'
source_filename = "three_threads.9cf17d79-cgu.0"
target datalayout = "e-m:o-i64:64-i128:128-n32:64-S128"
target triple = "aarch64-apple-macosx10.7.0"

%"std::panic::AssertUnwindSafe<[closure@std::thread::Builder::spawn_unchecked<[closure@three_threads.rs:7:16: 10:3], ()>::{closure#0}::{closure#0}]>" = type { %"[closure@std::thread::Builder::spawn_unchecked<[closure@three_threads.rs:7:16: 10:3], ()>::{closure#0}::{closure#0}]" }
%"[closure@std::thread::Builder::spawn_unchecked<[closure@three_threads.rs:7:16: 10:3], ()>::{closure#0}::{closure#0}]" = type { %"[closure@three_threads.rs:7:16: 10:3]" }
%"[closure@three_threads.rs:7:16: 10:3]" = type {}
%"std::panic::AssertUnwindSafe<[closure@std::thread::Builder::spawn_unchecked<[closure@three_threads.rs:12:16: 15:3], ()>::{closure#0}::{closure#0}]>" = type { %"[closure@std::thread::Builder::spawn_unchecked<[closure@three_threads.rs:12:16: 15:3], ()>::{closure#0}::{closure#0}]" }
%"[closure@std::thread::Builder::spawn_unchecked<[closure@three_threads.rs:12:16: 15:3], ()>::{closure#0}::{closure#0}]" = type { %"[closure@three_threads.rs:12:16: 15:3]" }
%"[closure@three_threads.rs:12:16: 15:3]" = type {}
%"std::alloc::AllocError" = type {}
%"std::result::Result<std::convert::Infallible, std::alloc::AllocError>::Err" = type { %"std::alloc::AllocError" }
%"std::result::Result<std::ptr::NonNull<[u8]>, std::alloc::AllocError>::Err" = type { %"std::alloc::AllocError" }
%"std::result::Result<std::thread::JoinHandle<()>, std::io::Error>" = type { i64, [4 x i64] }
%"std::io::Error" = type { %"std::io::error::Repr" }
%"std::io::error::Repr" = type { i8, [15 x i8] }
%"std::result::Result<std::convert::Infallible, std::io::Error>::Err" = type { %"std::io::Error" }
%"std::result::Result<std::thread::JoinHandle<()>, std::io::Error>::Err" = type { [1 x i64], %"std::io::Error" }
%"std::thread::JoinHandle<()>" = type { %"std::thread::JoinInner<()>" }
%"std::thread::JoinInner<()>" = type { { i64, i64 }, i64*, i64* }
%"std::thread::Builder" = type { %"std::option::Option<std::string::String>", { i64, i64 } }
%"std::option::Option<std::string::String>" = type { {}*, [2 x i64] }
%"std::panic::Location" = type { { [0 x i8]*, i64 }, i32, i32 }
%"std::option::Option<std::result::Result<(), std::boxed::Box<dyn std::any::Any + std::marker::Send>>>" = type { i64, [2 x i64] }
%"[closure@std::thread::Builder::spawn_unchecked<[closure@three_threads.rs:7:16: 10:3], ()>::{closure#0}]" = type { %"[closure@three_threads.rs:7:16: 10:3]", i64*, i64*, i64* }
%"std::result::Result<std::sys::unix::thread::Thread, std::io::Error>" = type { i64, [2 x i64] }
%"std::ops::ControlFlow<std::result::Result<std::convert::Infallible, std::io::Error>, std::sys::unix::thread::Thread>" = type { i64, [2 x i64] }
%"std::cell::UnsafeCell<std::option::Option<std::result::Result<(), std::boxed::Box<dyn std::any::Any + std::marker::Send>>>>" = type { %"std::option::Option<std::result::Result<(), std::boxed::Box<dyn std::any::Any + std::marker::Send>>>" }
%"std::ops::ControlFlow<std::result::Result<std::convert::Infallible, std::io::Error>, std::sys::unix::thread::Thread>::Continue" = type { [1 x i64], i64 }
%"std::option::Option<std::sys::unix::thread::Thread>::Some" = type { [1 x i64], i64 }
%"std::result::Result<std::thread::JoinHandle<()>, std::io::Error>::Ok" = type { [1 x i64], %"std::thread::JoinHandle<()>" }
%"std::ops::ControlFlow<std::result::Result<std::convert::Infallible, std::io::Error>, std::sys::unix::thread::Thread>::Break" = type { [1 x i64], %"std::result::Result<std::convert::Infallible, std::io::Error>::Err" }
%"[closure@std::thread::Builder::spawn_unchecked<[closure@three_threads.rs:12:16: 15:3], ()>::{closure#0}]" = type { %"[closure@three_threads.rs:12:16: 15:3]", i64*, i64*, i64* }
%"std::ffi::CStr" = type { [0 x i8] }
%"std::option::Option<std::ops::Range<usize>>" = type { i64, [2 x i64] }
%"std::option::Option<std::result::Result<(), std::boxed::Box<dyn std::any::Any + std::marker::Send>>>::Some" = type { [1 x i64], { i8*, i8* } }
%"std::mem::ManuallyDrop<std::panic::AssertUnwindSafe<[closure@std::thread::Builder::spawn_unchecked<[closure@three_threads.rs:12:16: 15:3], ()>::{closure#0}::{closure#0}]>>" = type { %"std::panic::AssertUnwindSafe<[closure@std::thread::Builder::spawn_unchecked<[closure@three_threads.rs:12:16: 15:3], ()>::{closure#0}::{closure#0}]>" }
%"std::mem::ManuallyDrop<()>" = type { {} }
%"std::result::Result<(), std::boxed::Box<dyn std::any::Any + std::marker::Send>>::Ok" = type { {} }
%"std::mem::ManuallyDrop<std::panic::AssertUnwindSafe<[closure@std::thread::Builder::spawn_unchecked<[closure@three_threads.rs:7:16: 10:3], ()>::{closure#0}::{closure#0}]>>" = type { %"std::panic::AssertUnwindSafe<[closure@std::thread::Builder::spawn_unchecked<[closure@three_threads.rs:7:16: 10:3], ()>::{closure#0}::{closure#0}]>" }
%"std::fmt::Formatter" = type { { i64, i64 }, { i64, i64 }, { {}*, [3 x i64]* }, i32, i32, i8, [7 x i8] }
%"core::fmt::Opaque" = type {}
%"std::fmt::Arguments" = type { { [0 x { [0 x i8]*, i64 }]*, i64 }, { i64*, i64 }, { [0 x { i8*, i64* }]*, i64 } }
%"std::fmt::rt::v1::Argument" = type { i64, %"std::fmt::rt::v1::FormatSpec" }
%"std::fmt::rt::v1::FormatSpec" = type { { i64, i64 }, { i64, i64 }, i32, i32, i8, [7 x i8] }
%"alloc::sync::ArcInner<std::sync::Mutex<std::vec::Vec<u8>>>" = type { %"std::sync::atomic::AtomicUsize", %"std::sync::atomic::AtomicUsize", %"std::sync::Mutex<std::vec::Vec<u8>>" }
%"std::sync::atomic::AtomicUsize" = type { i64 }
%"std::sync::Mutex<std::vec::Vec<u8>>" = type { i64*, %"std::sync::poison::Flag", [7 x i8], %"std::cell::UnsafeCell<std::vec::Vec<u8>>" }
%"std::sync::poison::Flag" = type { %"std::sync::atomic::AtomicBool" }
%"std::sync::atomic::AtomicBool" = type { i8 }
%"std::cell::UnsafeCell<std::vec::Vec<u8>>" = type { %"std::vec::Vec<u8>" }
%"std::vec::Vec<u8>" = type { { i8*, i64 }, i64 }
%"alloc::sync::ArcInner<std::thread::Inner>" = type { %"std::sync::atomic::AtomicUsize", %"std::sync::atomic::AtomicUsize", %"std::thread::Inner" }
%"std::thread::Inner" = type { { i8*, i64 }, i64, %"std::sys_common::thread_parker::generic::Parker" }
%"std::sys_common::thread_parker::generic::Parker" = type { %"std::sync::atomic::AtomicUsize", %"std::sync::Mutex<()>", %"std::sync::Condvar" }
%"std::sync::Mutex<()>" = type { i64*, %"std::sync::poison::Flag", %"std::cell::UnsafeCell<()>", [7 x i8] }
%"std::cell::UnsafeCell<()>" = type { {} }
%"std::sync::Condvar" = type { %"std::sys_common::condvar::Condvar" }
%"std::sys_common::condvar::Condvar" = type { %"std::sys::unix::condvar::Condvar"*, %"std::sys_common::condvar::check::SameMutexCheck" }
%"std::sys::unix::condvar::Condvar" = type { %"std::cell::UnsafeCell<libc::unix::bsd::apple::pthread_cond_t>" }
%"std::cell::UnsafeCell<libc::unix::bsd::apple::pthread_cond_t>" = type { %"libc::unix::bsd::apple::pthread_cond_t" }
%"libc::unix::bsd::apple::pthread_cond_t" = type { i64, [40 x i8] }
%"std::sys_common::condvar::check::SameMutexCheck" = type { %"std::sync::atomic::AtomicUsize" }
%"alloc::sync::ArcInner<std::cell::UnsafeCell<std::option::Option<std::result::Result<(), std::boxed::Box<dyn std::any::Any + std::marker::Send>>>>>" = type { %"std::sync::atomic::AtomicUsize", %"std::sync::atomic::AtomicUsize", %"std::cell::UnsafeCell<std::option::Option<std::result::Result<(), std::boxed::Box<dyn std::any::Any + std::marker::Send>>>>" }
%"std::io::error::Repr::Custom" = type { [1 x i64], %"std::io::error::Custom"* }
%"std::io::error::Custom" = type { { {}*, [3 x i64]* }, i8, [7 x i8] }
%"std::string::String" = type { %"std::vec::Vec<u8>" }
%"std::mem::MaybeUninit<std::panic::AssertUnwindSafe<[closure@std::thread::Builder::spawn_unchecked<[closure@three_threads.rs:7:16: 10:3], ()>::{closure#0}::{closure#0}]>>" = type { [0 x i8] }
%"std::mem::MaybeUninit<std::panic::AssertUnwindSafe<[closure@std::thread::Builder::spawn_unchecked<[closure@three_threads.rs:12:16: 15:3], ()>::{closure#0}::{closure#0}]>>" = type { [0 x i8] }
%"std::sys::unix::mutex::Mutex" = type { %"std::cell::UnsafeCell<libc::unix::bsd::apple::pthread_mutex_t>" }
%"std::cell::UnsafeCell<libc::unix::bsd::apple::pthread_mutex_t>" = type { %"libc::unix::bsd::apple::pthread_mutex_t" }
%"libc::unix::bsd::apple::pthread_mutex_t" = type { i64, [56 x i8] }
%"std::option::Option<std::string::String>::Some" = type { %"std::string::String" }
%"std::ptr::metadata::PtrRepr<[u8]>" = type { [2 x i64] }
%"std::option::Option<usize>::Some" = type { [1 x i64], i64 }
%"std::result::Result<std::ptr::NonNull<u8>, std::alloc::AllocError>::Err" = type { %"std::alloc::AllocError" }
%"std::alloc::Global" = type {}
%"std::option::Option<(std::ptr::NonNull<u8>, std::alloc::Layout)>" = type { {}*, [2 x i64] }
%"std::option::Option<(std::ptr::NonNull<u8>, std::alloc::Layout)>::Some" = type { { i8*, { i64, i64 } } }
%"std::ops::ControlFlow<std::result::Result<std::convert::Infallible, std::alloc::AllocError>, std::ptr::NonNull<u8>>::Break" = type { %"std::result::Result<std::convert::Infallible, std::alloc::AllocError>::Err" }
%"std::result::Result<std::sys::unix::thread::Thread, std::io::Error>::Ok" = type { [1 x i64], i64 }
%"std::result::Result<std::sys::unix::thread::Thread, std::io::Error>::Err" = type { [1 x i64], %"std::io::Error" }
%"unwind::libunwind::_Unwind_Exception" = type { i64, void (i32, %"unwind::libunwind::_Unwind_Exception"*)*, [2 x i64] }
%"unwind::libunwind::_Unwind_Context" = type { [0 x i8] }

@vtable.0 = private unnamed_addr constant <{ i8*, [16 x i8], i8*, i8*, i8*, [0 x i8] }> <{ i8* bitcast (void (i64**)* @"_ZN4core3ptr85drop_in_place$LT$std..rt..lang_start$LT$$LP$$RP$$GT$..$u7b$$u7b$closure$u7d$$u7d$$GT$17hd05ca6417c4feef4E" to i8*), [16 x i8] c"\08\00\00\00\00\00\00\00\08\00\00\00\00\00\00\00", i8* bitcast (i32 (i64**)* @"_ZN4core3ops8function6FnOnce40call_once$u7b$$u7b$vtable.shim$u7d$$u7d$17ha675163fa82a939bE" to i8*), i8* bitcast (i32 (i64**)* @"_ZN3std2rt10lang_start28_$u7b$$u7b$closure$u7d$$u7d$17h760068234c2ea0dbE" to i8*), i8* bitcast (i32 (i64**)* @"_ZN3std2rt10lang_start28_$u7b$$u7b$closure$u7d$$u7d$17h760068234c2ea0dbE" to i8*), [0 x i8] zeroinitializer }>, align 8, !dbg !0
@alloc178 = private unnamed_addr constant <{ [22 x i8] }> <{ [22 x i8] c"failed to spawn thread" }>, align 1
@alloc176 = private unnamed_addr constant <{ [77 x i8] }> <{ [77 x i8] c"/rustc/97032a6dfacdd3548e4bff98c90a6b3875a14077/library/std/src/thread/mod.rs" }>, align 1
@alloc177 = private unnamed_addr constant <{ i8*, [16 x i8] }> <{ i8* getelementptr inbounds (<{ [77 x i8] }>, <{ [77 x i8] }>* @alloc176, i32 0, i32 0, i32 0), [16 x i8] c"M\00\00\00\00\00\00\00t\02\00\00\1D\00\00\00" }>, align 8
@vtable.1 = private unnamed_addr constant <{ i8*, [16 x i8], i8*, [0 x i8] }> <{ i8* bitcast (void (%"[closure@std::thread::Builder::spawn_unchecked<[closure@three_threads.rs:7:16: 10:3], ()>::{closure#0}]"*)* @"_ZN4core3ptr154drop_in_place$LT$std..thread..Builder..spawn_unchecked$LT$three_threads..main..$u7b$$u7b$closure$u7d$$u7d$$C$$LP$$RP$$GT$..$u7b$$u7b$closure$u7d$$u7d$$GT$17h7fd9bcd37f8afae2E" to i8*), [16 x i8] c"\18\00\00\00\00\00\00\00\08\00\00\00\00\00\00\00", i8* bitcast (void (%"[closure@std::thread::Builder::spawn_unchecked<[closure@three_threads.rs:7:16: 10:3], ()>::{closure#0}]"*)* @"_ZN4core3ops8function6FnOnce40call_once$u7b$$u7b$vtable.shim$u7d$$u7d$17hc768e7e78b14323cE" to i8*), [0 x i8] zeroinitializer }>, align 8, !dbg !14
@vtable.2 = private unnamed_addr constant <{ i8*, [16 x i8], i8*, [0 x i8] }> <{ i8* bitcast (void (%"[closure@std::thread::Builder::spawn_unchecked<[closure@three_threads.rs:12:16: 15:3], ()>::{closure#0}]"*)* @"_ZN4core3ptr154drop_in_place$LT$std..thread..Builder..spawn_unchecked$LT$three_threads..main..$u7b$$u7b$closure$u7d$$u7d$$C$$LP$$RP$$GT$..$u7b$$u7b$closure$u7d$$u7d$$GT$17h1b65384692c3d3c2E" to i8*), [16 x i8] c"\18\00\00\00\00\00\00\00\08\00\00\00\00\00\00\00", i8* bitcast (void (%"[closure@std::thread::Builder::spawn_unchecked<[closure@three_threads.rs:12:16: 15:3], ()>::{closure#0}]"*)* @"_ZN4core3ops8function6FnOnce40call_once$u7b$$u7b$vtable.shim$u7d$$u7d$17h8aa87b3efc051ebcE" to i8*), [0 x i8] zeroinitializer }>, align 8, !dbg !331
@alloc185 = private unnamed_addr constant <{ [75 x i8] }> <{ [75 x i8] c"/rustc/97032a6dfacdd3548e4bff98c90a6b3875a14077/library/core/src/ptr/mod.rs" }>, align 1
@alloc186 = private unnamed_addr constant <{ i8*, [16 x i8] }> <{ i8* getelementptr inbounds (<{ [75 x i8] }>, <{ [75 x i8] }>* @alloc185, i32 0, i32 0, i32 0), [16 x i8] c"K\00\00\00\00\00\00\00\BC\02\00\00\0D\00\00\00" }>, align 8
@alloc187 = private unnamed_addr constant <{ [41 x i8] }> <{ [41 x i8] c"there is no such thing as a relaxed fence" }>, align 1
@alloc188 = private unnamed_addr constant <{ [79 x i8] }> <{ [79 x i8] c"/rustc/97032a6dfacdd3548e4bff98c90a6b3875a14077/library/core/src/sync/atomic.rs" }>, align 1
@alloc189 = private unnamed_addr constant <{ i8*, [16 x i8] }> <{ i8* getelementptr inbounds (<{ [79 x i8] }>, <{ [79 x i8] }>* @alloc188, i32 0, i32 0, i32 0), [16 x i8] c"O\00\00\00\00\00\00\00y\0A\00\00\18\00\00\00" }>, align 8
@vtable.3 = private unnamed_addr constant <{ i8*, [16 x i8], i8*, [0 x i8] }> <{ i8* bitcast (void (%"std::io::Error"*)* @"_ZN4core3ptr42drop_in_place$LT$std..io..error..Error$GT$17hafc9a532aa1a984cE" to i8*), [16 x i8] c"\10\00\00\00\00\00\00\00\08\00\00\00\00\00\00\00", i8* bitcast (i1 (%"std::io::Error"*, %"std::fmt::Formatter"*)* @"_ZN58_$LT$std..io..error..Error$u20$as$u20$core..fmt..Debug$GT$3fmt17hd22504bb3d56b455E" to i8*), [0 x i8] zeroinitializer }>, align 8, !dbg !341
@alloc99 = private unnamed_addr constant <{ [0 x i8] }> zeroinitializer, align 1
@alloc108 = private unnamed_addr constant <{ [16 x i8] }> <{ [16 x i8] c"three_threads.rs" }>, align 1
@alloc109 = private unnamed_addr constant <{ i8*, [8 x i8] }> <{ i8* getelementptr inbounds (<{ [16 x i8] }>, <{ [16 x i8] }>* @alloc108, i32 0, i32 0, i32 0), [8 x i8] c"\10\00\00\00\00\00\00\00" }>, align 8
@alloc5 = private unnamed_addr constant <{ [4 x i8] }> <{ [4 x i8] c"\05\00\00\00" }>, align 4
@alloc7 = private unnamed_addr constant <{ [1 x i8] }> <{ [1 x i8] c"x" }>, align 1
@alloc8 = private unnamed_addr constant <{ i8*, [8 x i8] }> <{ i8* getelementptr inbounds (<{ [1 x i8] }>, <{ [1 x i8] }>* @alloc7, i32 0, i32 0, i32 0), [8 x i8] c"\01\00\00\00\00\00\00\00" }>, align 8
@alloc116 = private unnamed_addr constant <{ [1 x i8] }> <{ [1 x i8] c"[" }>, align 1
@alloc118 = private unnamed_addr constant <{ [1 x i8] }> <{ [1 x i8] c":" }>, align 1
@alloc119 = private unnamed_addr constant <{ [2 x i8] }> <{ [2 x i8] c"] " }>, align 1
@alloc120 = private unnamed_addr constant <{ [3 x i8] }> <{ [3 x i8] c" = " }>, align 1
@alloc121 = private unnamed_addr constant <{ [1 x i8] }> <{ [1 x i8] c"\0A" }>, align 1
@alloc117 = private unnamed_addr constant <{ i8*, [8 x i8], i8*, [8 x i8], i8*, [8 x i8], i8*, [8 x i8], i8*, [8 x i8] }> <{ i8* getelementptr inbounds (<{ [1 x i8] }>, <{ [1 x i8] }>* @alloc116, i32 0, i32 0, i32 0), [8 x i8] c"\01\00\00\00\00\00\00\00", i8* getelementptr inbounds (<{ [1 x i8] }>, <{ [1 x i8] }>* @alloc118, i32 0, i32 0, i32 0), [8 x i8] c"\01\00\00\00\00\00\00\00", i8* getelementptr inbounds (<{ [2 x i8] }>, <{ [2 x i8] }>* @alloc119, i32 0, i32 0, i32 0), [8 x i8] c"\02\00\00\00\00\00\00\00", i8* getelementptr inbounds (<{ [3 x i8] }>, <{ [3 x i8] }>* @alloc120, i32 0, i32 0, i32 0), [8 x i8] c"\03\00\00\00\00\00\00\00", i8* getelementptr inbounds (<{ [1 x i8] }>, <{ [1 x i8] }>* @alloc121, i32 0, i32 0, i32 0), [8 x i8] c"\01\00\00\00\00\00\00\00" }>, align 8
@alloc143 = private unnamed_addr constant <{ [224 x i8] }> <{ [224 x i8] c"\00\00\00\00\00\00\00\00\02\00\00\00\00\00\00\00\00\00\00\00\00\00\00\00\02\00\00\00\00\00\00\00\00\00\00\00\00\00\00\00 \00\00\00\00\00\00\00\03\00\00\00\00\00\00\00\01\00\00\00\00\00\00\00\02\00\00\00\00\00\00\00\00\00\00\00\00\00\00\00\02\00\00\00\00\00\00\00\00\00\00\00\00\00\00\00 \00\00\00\00\00\00\00\03\00\00\00\00\00\00\00\02\00\00\00\00\00\00\00\02\00\00\00\00\00\00\00\00\00\00\00\00\00\00\00\02\00\00\00\00\00\00\00\00\00\00\00\00\00\00\00 \00\00\00\00\00\00\00\03\00\00\00\00\00\00\00\03\00\00\00\00\00\00\00\02\00\00\00\00\00\00\00\00\00\00\00\00\00\00\00\02\00\00\00\00\00\00\00\00\00\00\00\00\00\00\00 \00\00\00\04\00\00\00\03\00\00\00\00\00\00\00" }>, align 8
@alloc63 = private unnamed_addr constant <{ [4 x i8] }> <{ [4 x i8] c"\09\00\00\00" }>, align 4
@alloc65 = private unnamed_addr constant <{ [1 x i8] }> <{ [1 x i8] c"y" }>, align 1
@alloc66 = private unnamed_addr constant <{ i8*, [8 x i8] }> <{ i8* getelementptr inbounds (<{ [1 x i8] }>, <{ [1 x i8] }>* @alloc65, i32 0, i32 0, i32 0), [8 x i8] c"\01\00\00\00\00\00\00\00" }>, align 8
@alloc111 = private unnamed_addr constant <{ [4 x i8] }> <{ [4 x i8] c"\0E\00\00\00" }>, align 4
@alloc113 = private unnamed_addr constant <{ [1 x i8] }> <{ [1 x i8] c"z" }>, align 1
@alloc114 = private unnamed_addr constant <{ i8*, [8 x i8] }> <{ i8* getelementptr inbounds (<{ [1 x i8] }>, <{ [1 x i8] }>* @alloc113, i32 0, i32 0, i32 0), [8 x i8] c"\01\00\00\00\00\00\00\00" }>, align 8

; <core::panic::unwind_safe::AssertUnwindSafe<F> as core::ops::function::FnOnce<()>>::call_once
; Function Attrs: uwtable
define internal void @"_ZN115_$LT$core..panic..unwind_safe..AssertUnwindSafe$LT$F$GT$$u20$as$u20$core..ops..function..FnOnce$LT$$LP$$RP$$GT$$GT$9call_once17h6ce079c216050e91E"() unnamed_addr #0 !dbg !463 {
start:
  %self.dbg.spill = alloca %"std::panic::AssertUnwindSafe<[closure@std::thread::Builder::spawn_unchecked<[closure@three_threads.rs:7:16: 10:3], ()>::{closure#0}::{closure#0}]>", align 1
  %_args = alloca {}, align 1
  call void @llvm.dbg.declare(metadata %"std::panic::AssertUnwindSafe<[closure@std::thread::Builder::spawn_unchecked<[closure@three_threads.rs:7:16: 10:3], ()>::{closure#0}::{closure#0}]>"* %self.dbg.spill, metadata !480, metadata !DIExpression()), !dbg !485
  call void @llvm.dbg.declare(metadata {}* %_args, metadata !481, metadata !DIExpression()), !dbg !486
; call std::thread::Builder::spawn_unchecked::{{closure}}::{{closure}}
  call void @"_ZN3std6thread7Builder15spawn_unchecked28_$u7b$$u7b$closure$u7d$$u7d$28_$u7b$$u7b$closure$u7d$$u7d$17hce5895da35075801E"(), !dbg !487
  br label %bb1, !dbg !487

bb1:                                              ; preds = %start
  ret void, !dbg !488
}

; <core::panic::unwind_safe::AssertUnwindSafe<F> as core::ops::function::FnOnce<()>>::call_once
; Function Attrs: uwtable
define internal void @"_ZN115_$LT$core..panic..unwind_safe..AssertUnwindSafe$LT$F$GT$$u20$as$u20$core..ops..function..FnOnce$LT$$LP$$RP$$GT$$GT$9call_once17h8330631e9de16022E"() unnamed_addr #0 !dbg !489 {
start:
  %self.dbg.spill = alloca %"std::panic::AssertUnwindSafe<[closure@std::thread::Builder::spawn_unchecked<[closure@three_threads.rs:12:16: 15:3], ()>::{closure#0}::{closure#0}]>", align 1
  %_args = alloca {}, align 1
  call void @llvm.dbg.declare(metadata %"std::panic::AssertUnwindSafe<[closure@std::thread::Builder::spawn_unchecked<[closure@three_threads.rs:12:16: 15:3], ()>::{closure#0}::{closure#0}]>"* %self.dbg.spill, metadata !501, metadata !DIExpression()), !dbg !505
  call void @llvm.dbg.declare(metadata {}* %_args, metadata !502, metadata !DIExpression()), !dbg !506
; call std::thread::Builder::spawn_unchecked::{{closure}}::{{closure}}
  call void @"_ZN3std6thread7Builder15spawn_unchecked28_$u7b$$u7b$closure$u7d$$u7d$28_$u7b$$u7b$closure$u7d$$u7d$17hb77f6abbfd0a1882E"(), !dbg !507
  br label %bb1, !dbg !507

bb1:                                              ; preds = %start
  ret void, !dbg !508
}

; <core::ptr::non_null::NonNull<T> as core::convert::From<core::ptr::unique::Unique<T>>>::from
; Function Attrs: inlinehint uwtable
define internal nonnull i8* @"_ZN119_$LT$core..ptr..non_null..NonNull$LT$T$GT$$u20$as$u20$core..convert..From$LT$core..ptr..unique..Unique$LT$T$GT$$GT$$GT$4from17h8a983549d98f846dE"(i8* nonnull %unique) unnamed_addr #1 !dbg !509 {
start:
  %unique.dbg.spill = alloca i8*, align 8
  store i8* %unique, i8** %unique.dbg.spill, align 8
  call void @llvm.dbg.declare(metadata i8** %unique.dbg.spill, metadata !518, metadata !DIExpression()), !dbg !519
; call core::ptr::unique::Unique<T>::as_ptr
  %_2 = call i8* @"_ZN4core3ptr6unique15Unique$LT$T$GT$6as_ptr17h2433fb8d48112c94E"(i8* nonnull %unique), !dbg !520
  br label %bb1, !dbg !520

bb1:                                              ; preds = %start
; call core::ptr::non_null::NonNull<T>::new_unchecked
  %0 = call nonnull i8* @"_ZN4core3ptr8non_null16NonNull$LT$T$GT$13new_unchecked17h06df6bf7457e513bE"(i8* %_2), !dbg !521
  br label %bb2, !dbg !521

bb2:                                              ; preds = %bb1
  ret i8* %0, !dbg !522
}

; <core::result::Result<T,F> as core::ops::try_trait::FromResidual<core::result::Result<core::convert::Infallible,E>>>::from_residual
; Function Attrs: inlinehint uwtable
define internal { i8*, i64 } @"_ZN153_$LT$core..result..Result$LT$T$C$F$GT$$u20$as$u20$core..ops..try_trait..FromResidual$LT$core..result..Result$LT$core..convert..Infallible$C$E$GT$$GT$$GT$13from_residual17h1d9cad894c2fb35aE"() unnamed_addr #1 !dbg !523 {
start:
  %e.dbg.spill = alloca %"std::alloc::AllocError", align 1
  %residual.dbg.spill = alloca %"std::result::Result<std::convert::Infallible, std::alloc::AllocError>::Err", align 1
  %0 = alloca { i8*, i64 }, align 8
  call void @llvm.dbg.declare(metadata %"std::result::Result<std::convert::Infallible, std::alloc::AllocError>::Err"* %residual.dbg.spill, metadata !568, metadata !DIExpression()), !dbg !573
  call void @llvm.dbg.declare(metadata %"std::alloc::AllocError"* %e.dbg.spill, metadata !569, metadata !DIExpression()), !dbg !574
; call <T as core::convert::From<T>>::from
  call void @"_ZN50_$LT$T$u20$as$u20$core..convert..From$LT$T$GT$$GT$4from17heb1d41724ae7c7a3E"(), !dbg !575
  br label %bb1, !dbg !575

bb1:                                              ; preds = %start
  %1 = bitcast { i8*, i64 }* %0 to %"std::result::Result<std::ptr::NonNull<[u8]>, std::alloc::AllocError>::Err"*, !dbg !576
  %2 = bitcast %"std::result::Result<std::ptr::NonNull<[u8]>, std::alloc::AllocError>::Err"* %1 to %"std::alloc::AllocError"*, !dbg !576
  %3 = bitcast { i8*, i64 }* %0 to i8*, !dbg !576
  call void @llvm.memset.p0i8.i64(i8* align 8 %3, i8 0, i64 16, i1 false), !dbg !576
  %4 = bitcast { i8*, i64 }* %0 to {}**, !dbg !576
  store {}* null, {}** %4, align 8, !dbg !576
  %5 = getelementptr inbounds { i8*, i64 }, { i8*, i64 }* %0, i32 0, i32 0, !dbg !577
  %6 = load i8*, i8** %5, align 8, !dbg !577
  %7 = getelementptr inbounds { i8*, i64 }, { i8*, i64 }* %0, i32 0, i32 1, !dbg !577
  %8 = load i64, i64* %7, align 8, !dbg !577
  %9 = insertvalue { i8*, i64 } undef, i8* %6, 0, !dbg !577
  %10 = insertvalue { i8*, i64 } %9, i64 %8, 1, !dbg !577
  ret { i8*, i64 } %10, !dbg !577
}

; <core::result::Result<T,F> as core::ops::try_trait::FromResidual<core::result::Result<core::convert::Infallible,E>>>::from_residual
; Function Attrs: inlinehint uwtable
define internal void @"_ZN153_$LT$core..result..Result$LT$T$C$F$GT$$u20$as$u20$core..ops..try_trait..FromResidual$LT$core..result..Result$LT$core..convert..Infallible$C$E$GT$$GT$$GT$13from_residual17h79cfa5838ac5099dE"(%"std::result::Result<std::thread::JoinHandle<()>, std::io::Error>"* noalias nocapture sret(%"std::result::Result<std::thread::JoinHandle<()>, std::io::Error>") dereferenceable(40) %0, i128 %1) unnamed_addr #1 !dbg !578 {
start:
  %2 = alloca i128, align 16
  %_4 = alloca %"std::io::Error", align 8
  %_3 = alloca %"std::io::Error", align 8
  %e = alloca %"std::io::Error", align 8
  %3 = alloca i128, align 16
  %residual = alloca %"std::result::Result<std::convert::Infallible, std::io::Error>::Err", align 8
  store i128 %1, i128* %3, align 16
  %4 = bitcast %"std::result::Result<std::convert::Infallible, std::io::Error>::Err"* %residual to i8*
  %5 = bitcast i128* %3 to i8*
  call void @llvm.memcpy.p0i8.p0i8.i64(i8* align 8 %4, i8* align 16 %5, i64 16, i1 false)
  call void @llvm.dbg.declare(metadata %"std::result::Result<std::convert::Infallible, std::io::Error>::Err"* %residual, metadata !633, metadata !DIExpression()), !dbg !638
  call void @llvm.dbg.declare(metadata %"std::io::Error"* %e, metadata !634, metadata !DIExpression()), !dbg !639
  %6 = bitcast %"std::result::Result<std::convert::Infallible, std::io::Error>::Err"* %residual to %"std::io::Error"*, !dbg !640
  %7 = bitcast %"std::io::Error"* %e to i8*, !dbg !640
  %8 = bitcast %"std::io::Error"* %6 to i8*, !dbg !640
  call void @llvm.memcpy.p0i8.p0i8.i64(i8* align 8 %7, i8* align 8 %8, i64 16, i1 false), !dbg !640
  %9 = bitcast %"std::io::Error"* %_4 to i8*, !dbg !641
  %10 = bitcast %"std::io::Error"* %e to i8*, !dbg !641
  call void @llvm.memcpy.p0i8.p0i8.i64(i8* align 8 %9, i8* align 8 %10, i64 16, i1 false), !dbg !641
  %11 = bitcast %"std::io::Error"* %_4 to i128*, !dbg !642
  %12 = load i128, i128* %11, align 8, !dbg !642
; call <T as core::convert::From<T>>::from
  %13 = call i128 @"_ZN50_$LT$T$u20$as$u20$core..convert..From$LT$T$GT$$GT$4from17h5675784775e22ae0E"(i128 %12), !dbg !642
  store i128 %13, i128* %2, align 16, !dbg !642
  %14 = bitcast %"std::io::Error"* %_3 to i8*, !dbg !642
  %15 = bitcast i128* %2 to i8*, !dbg !642
  call void @llvm.memcpy.p0i8.p0i8.i64(i8* align 8 %14, i8* align 16 %15, i64 16, i1 false), !dbg !642
  br label %bb1, !dbg !642

bb1:                                              ; preds = %start
  %16 = bitcast %"std::result::Result<std::thread::JoinHandle<()>, std::io::Error>"* %0 to %"std::result::Result<std::thread::JoinHandle<()>, std::io::Error>::Err"*, !dbg !643
  %17 = getelementptr inbounds %"std::result::Result<std::thread::JoinHandle<()>, std::io::Error>::Err", %"std::result::Result<std::thread::JoinHandle<()>, std::io::Error>::Err"* %16, i32 0, i32 1, !dbg !643
  %18 = bitcast %"std::io::Error"* %17 to i8*, !dbg !643
  %19 = bitcast %"std::io::Error"* %_3 to i8*, !dbg !643
  call void @llvm.memcpy.p0i8.p0i8.i64(i8* align 8 %18, i8* align 8 %19, i64 16, i1 false), !dbg !643
  %20 = bitcast %"std::result::Result<std::thread::JoinHandle<()>, std::io::Error>"* %0 to i64*, !dbg !643
  store i64 1, i64* %20, align 8, !dbg !643
  ret void, !dbg !644
}

; std::sys_common::backtrace::__rust_begin_short_backtrace
; Function Attrs: noinline uwtable
define internal void @_ZN3std10sys_common9backtrace28__rust_begin_short_backtrace17h0e3fd76cbd3f4db0E() unnamed_addr #2 personality i32 (i32, i32, i64, %"unwind::libunwind::_Unwind_Exception"*, %"unwind::libunwind::_Unwind_Context"*)* @rust_eh_personality !dbg !645 {
start:
  %0 = alloca { i8*, i32 }, align 8
  %f.dbg.spill = alloca %"[closure@three_threads.rs:7:16: 10:3]", align 1
  %result.dbg.spill = alloca {}, align 1
  call void @llvm.dbg.declare(metadata {}* %result.dbg.spill, metadata !652, metadata !DIExpression()), !dbg !656
  call void @llvm.dbg.declare(metadata %"[closure@three_threads.rs:7:16: 10:3]"* %f.dbg.spill, metadata !651, metadata !DIExpression()), !dbg !657
; call three_threads::main::{{closure}}
  call void @"_ZN13three_threads4main28_$u7b$$u7b$closure$u7d$$u7d$17h161a125aba8ae83dE"(), !dbg !658
  br label %bb1, !dbg !658

bb1:                                              ; preds = %start
; invoke core::hint::black_box
  invoke void @_ZN4core4hint9black_box17hba5b398be1c9541cE()
          to label %bb2 unwind label %cleanup, !dbg !659

bb2:                                              ; preds = %bb1
  ret void, !dbg !660

bb3:                                              ; preds = %cleanup
  br label %bb4, !dbg !661

cleanup:                                          ; preds = %bb1
  %1 = landingpad { i8*, i32 }
          cleanup
  %2 = extractvalue { i8*, i32 } %1, 0
  %3 = extractvalue { i8*, i32 } %1, 1
  %4 = getelementptr inbounds { i8*, i32 }, { i8*, i32 }* %0, i32 0, i32 0
  store i8* %2, i8** %4, align 8
  %5 = getelementptr inbounds { i8*, i32 }, { i8*, i32 }* %0, i32 0, i32 1
  store i32 %3, i32* %5, align 8
  br label %bb3

bb4:                                              ; preds = %bb3
  %6 = bitcast { i8*, i32 }* %0 to i8**, !dbg !662
  %7 = load i8*, i8** %6, align 8, !dbg !662
  %8 = getelementptr inbounds { i8*, i32 }, { i8*, i32 }* %0, i32 0, i32 1, !dbg !662
  %9 = load i32, i32* %8, align 8, !dbg !662
  %10 = insertvalue { i8*, i32 } undef, i8* %7, 0, !dbg !662
  %11 = insertvalue { i8*, i32 } %10, i32 %9, 1, !dbg !662
  resume { i8*, i32 } %11, !dbg !662
}

; std::sys_common::backtrace::__rust_begin_short_backtrace
; Function Attrs: noinline uwtable
define internal void @_ZN3std10sys_common9backtrace28__rust_begin_short_backtrace17h2dcc0df27b4226deE(void ()* nonnull %f) unnamed_addr #2 personality i32 (i32, i32, i64, %"unwind::libunwind::_Unwind_Exception"*, %"unwind::libunwind::_Unwind_Context"*)* @rust_eh_personality !dbg !663 {
start:
  %0 = alloca { i8*, i32 }, align 8
  %f.dbg.spill = alloca void ()*, align 8
  %result.dbg.spill = alloca {}, align 1
  call void @llvm.dbg.declare(metadata {}* %result.dbg.spill, metadata !668, metadata !DIExpression()), !dbg !672
  store void ()* %f, void ()** %f.dbg.spill, align 8
  call void @llvm.dbg.declare(metadata void ()** %f.dbg.spill, metadata !667, metadata !DIExpression()), !dbg !673
; call core::ops::function::FnOnce::call_once
  call void @_ZN4core3ops8function6FnOnce9call_once17h08d9db7964657a84E(void ()* nonnull %f), !dbg !674
  br label %bb1, !dbg !674

bb1:                                              ; preds = %start
; invoke core::hint::black_box
  invoke void @_ZN4core4hint9black_box17hba5b398be1c9541cE()
          to label %bb2 unwind label %cleanup, !dbg !675

bb2:                                              ; preds = %bb1
  ret void, !dbg !676

bb3:                                              ; preds = %cleanup
  br label %bb4, !dbg !677

cleanup:                                          ; preds = %bb1
  %1 = landingpad { i8*, i32 }
          cleanup
  %2 = extractvalue { i8*, i32 } %1, 0
  %3 = extractvalue { i8*, i32 } %1, 1
  %4 = getelementptr inbounds { i8*, i32 }, { i8*, i32 }* %0, i32 0, i32 0
  store i8* %2, i8** %4, align 8
  %5 = getelementptr inbounds { i8*, i32 }, { i8*, i32 }* %0, i32 0, i32 1
  store i32 %3, i32* %5, align 8
  br label %bb3

bb4:                                              ; preds = %bb3
  %6 = bitcast { i8*, i32 }* %0 to i8**, !dbg !678
  %7 = load i8*, i8** %6, align 8, !dbg !678
  %8 = getelementptr inbounds { i8*, i32 }, { i8*, i32 }* %0, i32 0, i32 1, !dbg !678
  %9 = load i32, i32* %8, align 8, !dbg !678
  %10 = insertvalue { i8*, i32 } undef, i8* %7, 0, !dbg !678
  %11 = insertvalue { i8*, i32 } %10, i32 %9, 1, !dbg !678
  resume { i8*, i32 } %11, !dbg !678
}

; std::sys_common::backtrace::__rust_begin_short_backtrace
; Function Attrs: noinline uwtable
define internal void @_ZN3std10sys_common9backtrace28__rust_begin_short_backtrace17h40099bdb253263bbE() unnamed_addr #2 personality i32 (i32, i32, i64, %"unwind::libunwind::_Unwind_Exception"*, %"unwind::libunwind::_Unwind_Context"*)* @rust_eh_personality !dbg !679 {
start:
  %0 = alloca { i8*, i32 }, align 8
  %f.dbg.spill = alloca %"[closure@three_threads.rs:12:16: 15:3]", align 1
  %result.dbg.spill = alloca {}, align 1
  call void @llvm.dbg.declare(metadata {}* %result.dbg.spill, metadata !684, metadata !DIExpression()), !dbg !688
  call void @llvm.dbg.declare(metadata %"[closure@three_threads.rs:12:16: 15:3]"* %f.dbg.spill, metadata !683, metadata !DIExpression()), !dbg !689
; call three_threads::main::{{closure}}
  call void @"_ZN13three_threads4main28_$u7b$$u7b$closure$u7d$$u7d$17ha8176d8bad18bee9E"(), !dbg !690
  br label %bb1, !dbg !690

bb1:                                              ; preds = %start
; invoke core::hint::black_box
  invoke void @_ZN4core4hint9black_box17hba5b398be1c9541cE()
          to label %bb2 unwind label %cleanup, !dbg !691

bb2:                                              ; preds = %bb1
  ret void, !dbg !692

bb3:                                              ; preds = %cleanup
  br label %bb4, !dbg !693

cleanup:                                          ; preds = %bb1
  %1 = landingpad { i8*, i32 }
          cleanup
  %2 = extractvalue { i8*, i32 } %1, 0
  %3 = extractvalue { i8*, i32 } %1, 1
  %4 = getelementptr inbounds { i8*, i32 }, { i8*, i32 }* %0, i32 0, i32 0
  store i8* %2, i8** %4, align 8
  %5 = getelementptr inbounds { i8*, i32 }, { i8*, i32 }* %0, i32 0, i32 1
  store i32 %3, i32* %5, align 8
  br label %bb3

bb4:                                              ; preds = %bb3
  %6 = bitcast { i8*, i32 }* %0 to i8**, !dbg !694
  %7 = load i8*, i8** %6, align 8, !dbg !694
  %8 = getelementptr inbounds { i8*, i32 }, { i8*, i32 }* %0, i32 0, i32 1, !dbg !694
  %9 = load i32, i32* %8, align 8, !dbg !694
  %10 = insertvalue { i8*, i32 } undef, i8* %7, 0, !dbg !694
  %11 = insertvalue { i8*, i32 } %10, i32 %9, 1, !dbg !694
  resume { i8*, i32 } %11, !dbg !694
}

; std::rt::lang_start
; Function Attrs: uwtable
define hidden i64 @_ZN3std2rt10lang_start17hb09acbf07b384b15E(void ()* nonnull %main, i64 %argc, i8** %argv) unnamed_addr #0 !dbg !695 {
start:
  %argv.dbg.spill = alloca i8**, align 8
  %argc.dbg.spill = alloca i64, align 8
  %main.dbg.spill = alloca void ()*, align 8
  %_8 = alloca i64*, align 8
  store void ()* %main, void ()** %main.dbg.spill, align 8
  call void @llvm.dbg.declare(metadata void ()** %main.dbg.spill, metadata !702, metadata !DIExpression()), !dbg !705
  store i64 %argc, i64* %argc.dbg.spill, align 8
  call void @llvm.dbg.declare(metadata i64* %argc.dbg.spill, metadata !703, metadata !DIExpression()), !dbg !706
  store i8** %argv, i8*** %argv.dbg.spill, align 8
  call void @llvm.dbg.declare(metadata i8*** %argv.dbg.spill, metadata !704, metadata !DIExpression()), !dbg !707
  %0 = bitcast i64** %_8 to void ()**, !dbg !708
  store void ()* %main, void ()** %0, align 8, !dbg !708
  %_5.0 = bitcast i64** %_8 to {}*, !dbg !709
; call std::rt::lang_start_internal
  %_4 = call i64 @_ZN3std2rt19lang_start_internal17h1204e59261b41b2eE({}* nonnull align 1 %_5.0, [3 x i64]* align 8 dereferenceable(24) bitcast (<{ i8*, [16 x i8], i8*, i8*, i8*, [0 x i8] }>* @vtable.0 to [3 x i64]*), i64 %argc, i8** %argv), !dbg !710
  br label %bb1, !dbg !710

bb1:                                              ; preds = %start
; call core::result::Result<T,E>::into_ok
  %1 = call i64 @"_ZN4core6result19Result$LT$T$C$E$GT$7into_ok17h8342b3b33057f313E"(i64 %_4), !dbg !710
  br label %bb2, !dbg !710

bb2:                                              ; preds = %bb1
  ret i64 %1, !dbg !711
}

; std::rt::lang_start::{{closure}}
; Function Attrs: inlinehint uwtable
define internal i32 @"_ZN3std2rt10lang_start28_$u7b$$u7b$closure$u7d$$u7d$17h760068234c2ea0dbE"(i64** align 8 dereferenceable(8) %_1) unnamed_addr #1 !dbg !712 {
start:
  %_1.dbg.spill = alloca i64**, align 8
  store i64** %_1, i64*** %_1.dbg.spill, align 8
  %0 = load i64**, i64*** %_1.dbg.spill, align 8, !nonnull !4
  %1 = bitcast i64** %0 to void ()**
  call void @llvm.dbg.declare(metadata i64*** %_1.dbg.spill, metadata !717, metadata !DIExpression(DW_OP_deref)), !dbg !718
  %2 = bitcast i64** %_1 to void ()**, !dbg !719
  %_3 = load void ()*, void ()** %2, align 8, !dbg !719, !nonnull !4
; call std::sys_common::backtrace::__rust_begin_short_backtrace
  call void @_ZN3std10sys_common9backtrace28__rust_begin_short_backtrace17h2dcc0df27b4226deE(void ()* nonnull %_3), !dbg !720
  br label %bb1, !dbg !720

bb1:                                              ; preds = %start
; call <() as std::process::Termination>::report
  %3 = call i32 @"_ZN54_$LT$$LP$$RP$$u20$as$u20$std..process..Termination$GT$6report17hcc6ddf69a684b65dE"(), !dbg !720
  br label %bb2, !dbg !720

bb2:                                              ; preds = %bb1
  ret i32 %3, !dbg !721
}

; std::sys::unix::process::process_common::ExitCode::as_i32
; Function Attrs: inlinehint uwtable
define internal i32 @_ZN3std3sys4unix7process14process_common8ExitCode6as_i3217h21943b45fb492d6fE(i8* align 1 dereferenceable(1) %self) unnamed_addr #1 !dbg !722 {
start:
  %self.dbg.spill = alloca i8*, align 8
  store i8* %self, i8** %self.dbg.spill, align 8
  call void @llvm.dbg.declare(metadata i8** %self.dbg.spill, metadata !733, metadata !DIExpression()), !dbg !734
  %_2 = load i8, i8* %self, align 1, !dbg !735
  %0 = zext i8 %_2 to i32, !dbg !735
  ret i32 %0, !dbg !736
}

; std::panic::catch_unwind
; Function Attrs: uwtable
define internal { i8*, i8* } @_ZN3std5panic12catch_unwind17h6f37227ba48740b7E() unnamed_addr #0 !dbg !737 {
start:
  %f.dbg.spill = alloca %"std::panic::AssertUnwindSafe<[closure@std::thread::Builder::spawn_unchecked<[closure@three_threads.rs:12:16: 15:3], ()>::{closure#0}::{closure#0}]>", align 1
  call void @llvm.dbg.declare(metadata %"std::panic::AssertUnwindSafe<[closure@std::thread::Builder::spawn_unchecked<[closure@three_threads.rs:12:16: 15:3], ()>::{closure#0}::{closure#0}]>"* %f.dbg.spill, metadata !743, metadata !DIExpression()), !dbg !746
; call std::panicking::try
  %0 = call { i8*, i8* } @_ZN3std9panicking3try17h45033883cf78185cE(), !dbg !747
  %1 = extractvalue { i8*, i8* } %0, 0, !dbg !747
  %2 = extractvalue { i8*, i8* } %0, 1, !dbg !747
  br label %bb1, !dbg !747

bb1:                                              ; preds = %start
  %3 = insertvalue { i8*, i8* } undef, i8* %1, 0, !dbg !748
  %4 = insertvalue { i8*, i8* } %3, i8* %2, 1, !dbg !748
  ret { i8*, i8* } %4, !dbg !748
}

; std::panic::catch_unwind
; Function Attrs: uwtable
define internal { i8*, i8* } @_ZN3std5panic12catch_unwind17h9a71ebc326675fdeE() unnamed_addr #0 !dbg !749 {
start:
  %f.dbg.spill = alloca %"std::panic::AssertUnwindSafe<[closure@std::thread::Builder::spawn_unchecked<[closure@three_threads.rs:7:16: 10:3], ()>::{closure#0}::{closure#0}]>", align 1
  call void @llvm.dbg.declare(metadata %"std::panic::AssertUnwindSafe<[closure@std::thread::Builder::spawn_unchecked<[closure@three_threads.rs:7:16: 10:3], ()>::{closure#0}::{closure#0}]>"* %f.dbg.spill, metadata !753, metadata !DIExpression()), !dbg !756
; call std::panicking::try
  %0 = call { i8*, i8* } @_ZN3std9panicking3try17h5e0fe2fa29957622E(), !dbg !757
  %1 = extractvalue { i8*, i8* } %0, 0, !dbg !757
  %2 = extractvalue { i8*, i8* } %0, 1, !dbg !757
  br label %bb1, !dbg !757

bb1:                                              ; preds = %start
  %3 = insertvalue { i8*, i8* } undef, i8* %1, 0, !dbg !758
  %4 = insertvalue { i8*, i8* } %3, i8* %2, 1, !dbg !758
  ret { i8*, i8* } %4, !dbg !758
}

; std::thread::spawn
; Function Attrs: uwtable
define internal void @_ZN3std6thread5spawn17h739f55cd7df6e306E(%"std::thread::JoinHandle<()>"* noalias nocapture sret(%"std::thread::JoinHandle<()>") dereferenceable(32) %0) unnamed_addr #0 personality i32 (i32, i32, i64, %"unwind::libunwind::_Unwind_Exception"*, %"unwind::libunwind::_Unwind_Context"*)* @rust_eh_personality !dbg !759 {
start:
  %1 = alloca { i8*, i32 }, align 8
  %f.dbg.spill = alloca %"[closure@three_threads.rs:12:16: 15:3]", align 1
  %_7 = alloca i8, align 1
  %_3 = alloca %"std::thread::Builder", align 8
  %_2 = alloca %"std::result::Result<std::thread::JoinHandle<()>, std::io::Error>", align 8
  call void @llvm.dbg.declare(metadata %"[closure@three_threads.rs:12:16: 15:3]"* %f.dbg.spill, metadata !764, metadata !DIExpression()), !dbg !765
  store i8 0, i8* %_7, align 1, !dbg !766
  store i8 1, i8* %_7, align 1, !dbg !766
; invoke std::thread::Builder::new
  invoke void @_ZN3std6thread7Builder3new17hb34a0c50d1c2ba43E(%"std::thread::Builder"* noalias nocapture sret(%"std::thread::Builder") dereferenceable(40) %_3)
          to label %bb1 unwind label %cleanup, !dbg !766

bb1:                                              ; preds = %start
  store i8 0, i8* %_7, align 1, !dbg !767
; invoke std::thread::Builder::spawn
  invoke void @_ZN3std6thread7Builder5spawn17h43dc4c8f99323d72E(%"std::result::Result<std::thread::JoinHandle<()>, std::io::Error>"* noalias nocapture sret(%"std::result::Result<std::thread::JoinHandle<()>, std::io::Error>") dereferenceable(40) %_2, %"std::thread::Builder"* noalias nocapture dereferenceable(40) %_3)
          to label %bb2 unwind label %cleanup, !dbg !766

bb6:                                              ; preds = %cleanup
  %2 = load i8, i8* %_7, align 1, !dbg !768, !range !769
  %3 = trunc i8 %2 to i1, !dbg !768
  br i1 %3, label %bb5, label %bb4, !dbg !768

cleanup:                                          ; preds = %bb2, %bb1, %start
  %4 = landingpad { i8*, i32 }
          cleanup
  %5 = extractvalue { i8*, i32 } %4, 0
  %6 = extractvalue { i8*, i32 } %4, 1
  %7 = getelementptr inbounds { i8*, i32 }, { i8*, i32 }* %1, i32 0, i32 0
  store i8* %5, i8** %7, align 8
  %8 = getelementptr inbounds { i8*, i32 }, { i8*, i32 }* %1, i32 0, i32 1
  store i32 %6, i32* %8, align 8
  br label %bb6

bb2:                                              ; preds = %bb1
; invoke core::result::Result<T,E>::expect
  invoke void @"_ZN4core6result19Result$LT$T$C$E$GT$6expect17hfc2c922af433062bE"(%"std::thread::JoinHandle<()>"* noalias nocapture sret(%"std::thread::JoinHandle<()>") dereferenceable(32) %0, %"std::result::Result<std::thread::JoinHandle<()>, std::io::Error>"* noalias nocapture dereferenceable(40) %_2, [0 x i8]* nonnull align 1 bitcast (<{ [22 x i8] }>* @alloc178 to [0 x i8]*), i64 22, %"std::panic::Location"* align 8 dereferenceable(24) bitcast (<{ i8*, [16 x i8] }>* @alloc177 to %"std::panic::Location"*))
          to label %bb3 unwind label %cleanup, !dbg !766

bb3:                                              ; preds = %bb2
  ret void, !dbg !770

bb4:                                              ; preds = %bb5, %bb6
  %9 = bitcast { i8*, i32 }* %1 to i8**, !dbg !771
  %10 = load i8*, i8** %9, align 8, !dbg !771
  %11 = getelementptr inbounds { i8*, i32 }, { i8*, i32 }* %1, i32 0, i32 1, !dbg !771
  %12 = load i32, i32* %11, align 8, !dbg !771
  %13 = insertvalue { i8*, i32 } undef, i8* %10, 0, !dbg !771
  %14 = insertvalue { i8*, i32 } %13, i32 %12, 1, !dbg !771
  resume { i8*, i32 } %14, !dbg !771

bb5:                                              ; preds = %bb6
  br label %bb4, !dbg !768
}

; std::thread::spawn
; Function Attrs: uwtable
define internal void @_ZN3std6thread5spawn17hfe980eeab3f0baf6E(%"std::thread::JoinHandle<()>"* noalias nocapture sret(%"std::thread::JoinHandle<()>") dereferenceable(32) %0) unnamed_addr #0 personality i32 (i32, i32, i64, %"unwind::libunwind::_Unwind_Exception"*, %"unwind::libunwind::_Unwind_Context"*)* @rust_eh_personality !dbg !772 {
start:
  %1 = alloca { i8*, i32 }, align 8
  %f.dbg.spill = alloca %"[closure@three_threads.rs:7:16: 10:3]", align 1
  %_7 = alloca i8, align 1
  %_3 = alloca %"std::thread::Builder", align 8
  %_2 = alloca %"std::result::Result<std::thread::JoinHandle<()>, std::io::Error>", align 8
  call void @llvm.dbg.declare(metadata %"[closure@three_threads.rs:7:16: 10:3]"* %f.dbg.spill, metadata !776, metadata !DIExpression()), !dbg !777
  store i8 0, i8* %_7, align 1, !dbg !778
  store i8 1, i8* %_7, align 1, !dbg !778
; invoke std::thread::Builder::new
  invoke void @_ZN3std6thread7Builder3new17hb34a0c50d1c2ba43E(%"std::thread::Builder"* noalias nocapture sret(%"std::thread::Builder") dereferenceable(40) %_3)
          to label %bb1 unwind label %cleanup, !dbg !778

bb1:                                              ; preds = %start
  store i8 0, i8* %_7, align 1, !dbg !779
; invoke std::thread::Builder::spawn
  invoke void @_ZN3std6thread7Builder5spawn17h6e3bc14199c795b0E(%"std::result::Result<std::thread::JoinHandle<()>, std::io::Error>"* noalias nocapture sret(%"std::result::Result<std::thread::JoinHandle<()>, std::io::Error>") dereferenceable(40) %_2, %"std::thread::Builder"* noalias nocapture dereferenceable(40) %_3)
          to label %bb2 unwind label %cleanup, !dbg !778

bb6:                                              ; preds = %cleanup
  %2 = load i8, i8* %_7, align 1, !dbg !780, !range !769
  %3 = trunc i8 %2 to i1, !dbg !780
  br i1 %3, label %bb5, label %bb4, !dbg !780

cleanup:                                          ; preds = %bb2, %bb1, %start
  %4 = landingpad { i8*, i32 }
          cleanup
  %5 = extractvalue { i8*, i32 } %4, 0
  %6 = extractvalue { i8*, i32 } %4, 1
  %7 = getelementptr inbounds { i8*, i32 }, { i8*, i32 }* %1, i32 0, i32 0
  store i8* %5, i8** %7, align 8
  %8 = getelementptr inbounds { i8*, i32 }, { i8*, i32 }* %1, i32 0, i32 1
  store i32 %6, i32* %8, align 8
  br label %bb6

bb2:                                              ; preds = %bb1
; invoke core::result::Result<T,E>::expect
  invoke void @"_ZN4core6result19Result$LT$T$C$E$GT$6expect17hfc2c922af433062bE"(%"std::thread::JoinHandle<()>"* noalias nocapture sret(%"std::thread::JoinHandle<()>") dereferenceable(32) %0, %"std::result::Result<std::thread::JoinHandle<()>, std::io::Error>"* noalias nocapture dereferenceable(40) %_2, [0 x i8]* nonnull align 1 bitcast (<{ [22 x i8] }>* @alloc178 to [0 x i8]*), i64 22, %"std::panic::Location"* align 8 dereferenceable(24) bitcast (<{ i8*, [16 x i8] }>* @alloc177 to %"std::panic::Location"*))
          to label %bb3 unwind label %cleanup, !dbg !778

bb3:                                              ; preds = %bb2
  ret void, !dbg !781

bb4:                                              ; preds = %bb5, %bb6
  %9 = bitcast { i8*, i32 }* %1 to i8**, !dbg !782
  %10 = load i8*, i8** %9, align 8, !dbg !782
  %11 = getelementptr inbounds { i8*, i32 }, { i8*, i32 }* %1, i32 0, i32 1, !dbg !782
  %12 = load i32, i32* %11, align 8, !dbg !782
  %13 = insertvalue { i8*, i32 } undef, i8* %10, 0, !dbg !782
  %14 = insertvalue { i8*, i32 } %13, i32 %12, 1, !dbg !782
  resume { i8*, i32 } %14, !dbg !782

bb5:                                              ; preds = %bb6
  br label %bb4, !dbg !780
}

; std::thread::Builder::spawn_unchecked
; Function Attrs: uwtable
define internal void @_ZN3std6thread7Builder15spawn_unchecked17h3b232b2f89a625a6E(%"std::result::Result<std::thread::JoinHandle<()>, std::io::Error>"* noalias nocapture sret(%"std::result::Result<std::thread::JoinHandle<()>, std::io::Error>") dereferenceable(40) %0, %"std::thread::Builder"* noalias nocapture dereferenceable(40) %self) unnamed_addr #0 personality i32 (i32, i32, i64, %"unwind::libunwind::_Unwind_Exception"*, %"unwind::libunwind::_Unwind_Context"*)* @rust_eh_personality !dbg !783 {
start:
  %_2.i = alloca %"std::option::Option<std::result::Result<(), std::boxed::Box<dyn std::any::Any + std::marker::Send>>>", align 8
  %val.dbg.spill = alloca i64, align 8
  %1 = alloca { {}*, [3 x i64]* }, align 8
  %stack_size.dbg.spill1 = alloca i64, align 8
  %2 = alloca { i8*, i32 }, align 8
  %stack_size.dbg.spill = alloca { i64, i64 }, align 8
  %f.dbg.spill = alloca %"[closure@three_threads.rs:7:16: 10:3]", align 1
  %_45 = alloca i8, align 1
  %_44 = alloca i8, align 1
  %_43 = alloca i8, align 1
  %_42 = alloca i8, align 1
  %_41 = alloca i8, align 1
  %_39 = alloca i64*, align 8
  %_36 = alloca %"std::result::Result<std::convert::Infallible, std::io::Error>::Err", align 8
  %residual = alloca %"std::result::Result<std::convert::Infallible, std::io::Error>::Err", align 8
  %_33 = alloca %"[closure@std::thread::Builder::spawn_unchecked<[closure@three_threads.rs:7:16: 10:3], ()>::{closure#0}]", align 8
  %_27 = alloca %"std::result::Result<std::sys::unix::thread::Thread, std::io::Error>", align 8
  %_26 = alloca %"std::ops::ControlFlow<std::result::Result<std::convert::Infallible, std::io::Error>, std::sys::unix::thread::Thread>", align 8
  %_24 = alloca { i64, i64 }, align 8
  %_23 = alloca %"std::thread::JoinInner<()>", align 8
  %_22 = alloca %"std::thread::JoinHandle<()>", align 8
  %main = alloca %"[closure@std::thread::Builder::spawn_unchecked<[closure@three_threads.rs:7:16: 10:3], ()>::{closure#0}]", align 8
  %_18 = alloca i64*, align 8
  %_17 = alloca i64*, align 8
  %output_capture = alloca i64*, align 8
  %their_packet = alloca i64*, align 8
  %_13 = alloca %"std::option::Option<std::result::Result<(), std::boxed::Box<dyn std::any::Any + std::marker::Send>>>", align 8
  %_12 = alloca %"std::cell::UnsafeCell<std::option::Option<std::result::Result<(), std::boxed::Box<dyn std::any::Any + std::marker::Send>>>>", align 8
  %my_packet = alloca i64*, align 8
  %their_thread = alloca i64*, align 8
  %_8 = alloca %"std::option::Option<std::string::String>", align 8
  %my_thread = alloca i64*, align 8
  %name = alloca %"std::option::Option<std::string::String>", align 8
  call void @llvm.dbg.declare(metadata %"std::thread::Builder"* %self, metadata !817, metadata !DIExpression()), !dbg !840
  call void @llvm.dbg.declare(metadata %"[closure@three_threads.rs:7:16: 10:3]"* %f.dbg.spill, metadata !818, metadata !DIExpression()), !dbg !841
  call void @llvm.dbg.declare(metadata %"std::option::Option<std::string::String>"* %name, metadata !819, metadata !DIExpression()), !dbg !842
  call void @llvm.dbg.declare(metadata i64** %my_thread, metadata !824, metadata !DIExpression()), !dbg !843
  call void @llvm.dbg.declare(metadata i64** %their_thread, metadata !826, metadata !DIExpression()), !dbg !844
  call void @llvm.dbg.declare(metadata i64** %my_packet, metadata !828, metadata !DIExpression()), !dbg !845
  call void @llvm.dbg.declare(metadata i64** %their_packet, metadata !830, metadata !DIExpression()), !dbg !846
  call void @llvm.dbg.declare(metadata i64** %output_capture, metadata !832, metadata !DIExpression()), !dbg !847
  call void @llvm.dbg.declare(metadata %"[closure@std::thread::Builder::spawn_unchecked<[closure@three_threads.rs:7:16: 10:3], ()>::{closure#0}]"* %main, metadata !834, metadata !DIExpression()), !dbg !848
  call void @llvm.dbg.declare(metadata %"std::result::Result<std::convert::Infallible, std::io::Error>::Err"* %residual, metadata !836, metadata !DIExpression()), !dbg !849
  store i8 0, i8* %_41, align 1, !dbg !850
  store i8 0, i8* %_45, align 1, !dbg !850
  store i8 0, i8* %_43, align 1, !dbg !850
  store i8 0, i8* %_42, align 1, !dbg !850
  store i8 0, i8* %_44, align 1, !dbg !850
  store i8 1, i8* %_45, align 1, !dbg !850
  store i8 1, i8* %_44, align 1, !dbg !850
  %3 = bitcast %"std::thread::Builder"* %self to %"std::option::Option<std::string::String>"*, !dbg !850
  %4 = bitcast %"std::option::Option<std::string::String>"* %name to i8*, !dbg !850
  %5 = bitcast %"std::option::Option<std::string::String>"* %3 to i8*, !dbg !850
  call void @llvm.memcpy.p0i8.p0i8.i64(i8* align 8 %4, i8* align 8 %5, i64 24, i1 false), !dbg !850
  %6 = getelementptr inbounds %"std::thread::Builder", %"std::thread::Builder"* %self, i32 0, i32 1, !dbg !851
  %7 = getelementptr inbounds { i64, i64 }, { i64, i64 }* %6, i32 0, i32 0, !dbg !851
  %stack_size.0 = load i64, i64* %7, align 8, !dbg !851, !range !852
  %8 = getelementptr inbounds { i64, i64 }, { i64, i64 }* %6, i32 0, i32 1, !dbg !851
  %stack_size.1 = load i64, i64* %8, align 8, !dbg !851
  %9 = getelementptr inbounds { i64, i64 }, { i64, i64 }* %stack_size.dbg.spill, i32 0, i32 0, !dbg !851
  store i64 %stack_size.0, i64* %9, align 8, !dbg !851
  %10 = getelementptr inbounds { i64, i64 }, { i64, i64 }* %stack_size.dbg.spill, i32 0, i32 1, !dbg !851
  store i64 %stack_size.1, i64* %10, align 8, !dbg !851
  call void @llvm.dbg.declare(metadata { i64, i64 }* %stack_size.dbg.spill, metadata !821, metadata !DIExpression()), !dbg !853
; invoke core::option::Option<T>::unwrap_or_else
  %stack_size = invoke i64 @"_ZN4core6option15Option$LT$T$GT$14unwrap_or_else17hee0778e1d0f6c7a8E"(i64 %stack_size.0, i64 %stack_size.1)
          to label %bb1 unwind label %cleanup, !dbg !854

bb1:                                              ; preds = %start
  store i64 %stack_size, i64* %stack_size.dbg.spill1, align 8, !dbg !854
  call void @llvm.dbg.declare(metadata i64* %stack_size.dbg.spill1, metadata !822, metadata !DIExpression()), !dbg !855
  store i8 0, i8* %_44, align 1, !dbg !856
  %11 = bitcast %"std::option::Option<std::string::String>"* %_8 to i8*, !dbg !856
  %12 = bitcast %"std::option::Option<std::string::String>"* %name to i8*, !dbg !856
  call void @llvm.memcpy.p0i8.p0i8.i64(i8* align 8 %11, i8* align 8 %12, i64 24, i1 false), !dbg !856
; invoke std::thread::Thread::new
  %13 = invoke nonnull i64* @_ZN3std6thread6Thread3new17h7059b23a8ba95997E(%"std::option::Option<std::string::String>"* noalias nocapture dereferenceable(24) %_8)
          to label %bb2 unwind label %cleanup, !dbg !857

bb36:                                             ; preds = %bb25, %cleanup
  %14 = load i8, i8* %_44, align 1, !dbg !858, !range !769
  %15 = trunc i8 %14 to i1, !dbg !858
  br i1 %15, label %bb35, label %bb26, !dbg !858

cleanup:                                          ; preds = %bb1, %start
  %16 = landingpad { i8*, i32 }
          cleanup
  %17 = extractvalue { i8*, i32 } %16, 0
  %18 = extractvalue { i8*, i32 } %16, 1
  %19 = getelementptr inbounds { i8*, i32 }, { i8*, i32 }* %2, i32 0, i32 0
  store i8* %17, i8** %19, align 8
  %20 = getelementptr inbounds { i8*, i32 }, { i8*, i32 }* %2, i32 0, i32 1
  store i32 %18, i32* %20, align 8
  br label %bb36

bb2:                                              ; preds = %bb1
  store i64* %13, i64** %my_thread, align 8, !dbg !857
; invoke <std::thread::Thread as core::clone::Clone>::clone
  %21 = invoke nonnull i64* @"_ZN58_$LT$std..thread..Thread$u20$as$u20$core..clone..Clone$GT$5clone17h173cd6e89c046a0bE"(i64** align 8 dereferenceable(8) %my_thread)
          to label %bb3 unwind label %cleanup2, !dbg !859

bb3:                                              ; preds = %bb2
  store i64* %21, i64** %their_thread, align 8, !dbg !859
  store i8 1, i8* %_43, align 1, !dbg !860
  %22 = bitcast %"std::option::Option<std::result::Result<(), std::boxed::Box<dyn std::any::Any + std::marker::Send>>>"* %_13 to i64*, !dbg !861
  store i64 0, i64* %22, align 8, !dbg !861
  call void @llvm.experimental.noalias.scope.decl(metadata !862), !dbg !865
  call void @llvm.experimental.noalias.scope.decl(metadata !866), !dbg !865
  call void @llvm.dbg.declare(metadata %"std::option::Option<std::result::Result<(), std::boxed::Box<dyn std::any::Any + std::marker::Send>>>"* %_13, metadata !868, metadata !DIExpression()), !dbg !874
  %23 = bitcast %"std::option::Option<std::result::Result<(), std::boxed::Box<dyn std::any::Any + std::marker::Send>>>"* %_2.i to i8*, !dbg !876
  %24 = bitcast %"std::option::Option<std::result::Result<(), std::boxed::Box<dyn std::any::Any + std::marker::Send>>>"* %_13 to i8*, !dbg !876
  call void @llvm.memcpy.p0i8.p0i8.i64(i8* align 8 %23, i8* align 8 %24, i64 24, i1 false), !dbg !876, !noalias !862
  %25 = bitcast %"std::cell::UnsafeCell<std::option::Option<std::result::Result<(), std::boxed::Box<dyn std::any::Any + std::marker::Send>>>>"* %_12 to %"std::option::Option<std::result::Result<(), std::boxed::Box<dyn std::any::Any + std::marker::Send>>>"*, !dbg !877
  %26 = bitcast %"std::option::Option<std::result::Result<(), std::boxed::Box<dyn std::any::Any + std::marker::Send>>>"* %25 to i8*, !dbg !877
  %27 = bitcast %"std::option::Option<std::result::Result<(), std::boxed::Box<dyn std::any::Any + std::marker::Send>>>"* %_2.i to i8*, !dbg !877
  call void @llvm.memcpy.p0i8.p0i8.i64(i8* align 8 %26, i8* align 8 %27, i64 24, i1 false), !dbg !877, !noalias !866
  br label %bb4, !dbg !878

bb25:                                             ; preds = %bb33, %bb34, %cleanup2
; call core::ptr::drop_in_place<std::thread::Thread>
  call void @"_ZN4core3ptr40drop_in_place$LT$std..thread..Thread$GT$17h2abb1c9a01ac885cE"(i64** %my_thread) #14, !dbg !879
  br label %bb36, !dbg !879

cleanup2:                                         ; preds = %bb2
  %28 = landingpad { i8*, i32 }
          cleanup
  %29 = extractvalue { i8*, i32 } %28, 0
  %30 = extractvalue { i8*, i32 } %28, 1
  %31 = getelementptr inbounds { i8*, i32 }, { i8*, i32 }* %2, i32 0, i32 0
  store i8* %29, i8** %31, align 8
  %32 = getelementptr inbounds { i8*, i32 }, { i8*, i32 }* %2, i32 0, i32 1
  store i32 %30, i32* %32, align 8
  br label %bb25

bb4:                                              ; preds = %bb3
; invoke alloc::sync::Arc<T>::new
  %33 = invoke nonnull i64* @"_ZN5alloc4sync12Arc$LT$T$GT$3new17hf7c480232d64b6bcE"(%"std::cell::UnsafeCell<std::option::Option<std::result::Result<(), std::boxed::Box<dyn std::any::Any + std::marker::Send>>>>"* noalias nocapture dereferenceable(24) %_12)
          to label %bb5 unwind label %cleanup3, !dbg !880

bb34:                                             ; preds = %bb24, %cleanup3
  %34 = load i8, i8* %_43, align 1, !dbg !881, !range !769
  %35 = trunc i8 %34 to i1, !dbg !881
  br i1 %35, label %bb33, label %bb25, !dbg !881

cleanup3:                                         ; preds = %bb4
  %36 = landingpad { i8*, i32 }
          cleanup
  %37 = extractvalue { i8*, i32 } %36, 0
  %38 = extractvalue { i8*, i32 } %36, 1
  %39 = getelementptr inbounds { i8*, i32 }, { i8*, i32 }* %2, i32 0, i32 0
  store i8* %37, i8** %39, align 8
  %40 = getelementptr inbounds { i8*, i32 }, { i8*, i32 }* %2, i32 0, i32 1
  store i32 %38, i32* %40, align 8
  br label %bb34

bb5:                                              ; preds = %bb4
  store i64* %33, i64** %my_packet, align 8, !dbg !880
; invoke <alloc::sync::Arc<T> as core::clone::Clone>::clone
  %41 = invoke nonnull i64* @"_ZN64_$LT$alloc..sync..Arc$LT$T$GT$$u20$as$u20$core..clone..Clone$GT$5clone17hbcfc9d3f0ec1a187E"(i64** align 8 dereferenceable(8) %my_packet)
          to label %bb6 unwind label %cleanup4, !dbg !882

bb6:                                              ; preds = %bb5
  store i64* %41, i64** %their_packet, align 8, !dbg !882
  store i8 1, i8* %_42, align 1, !dbg !883
  %42 = bitcast i64** %_17 to i8*, !dbg !884
  call void @llvm.memset.p0i8.i64(i8* align 8 %42, i8 0, i64 8, i1 false), !dbg !884
  %43 = bitcast i64** %_17 to {}**, !dbg !884
  store {}* null, {}** %43, align 8, !dbg !884
  %44 = load i64*, i64** %_17, align 8, !dbg !885
; invoke std::io::stdio::set_output_capture
  %45 = invoke i64* @_ZN3std2io5stdio18set_output_capture17h5b0d0cafcb5e3848E(i64* %44)
          to label %bb7 unwind label %cleanup5, !dbg !885

bb24:                                             ; preds = %bb31, %bb32, %cleanup4
; call core::ptr::drop_in_place<alloc::sync::Arc<core::cell::UnsafeCell<core::option::Option<core::result::Result<(),alloc::boxed::Box<dyn core::any::Any+core::marker::Send>>>>>>
  call void @"_ZN4core3ptr212drop_in_place$LT$alloc..sync..Arc$LT$core..cell..UnsafeCell$LT$core..option..Option$LT$core..result..Result$LT$$LP$$RP$$C$alloc..boxed..Box$LT$dyn$u20$core..any..Any$u2b$core..marker..Send$GT$$GT$$GT$$GT$$GT$$GT$17hd930061a4e94938bE"(i64** %my_packet) #14, !dbg !886
  br label %bb34, !dbg !886

cleanup4:                                         ; preds = %bb5
  %46 = landingpad { i8*, i32 }
          cleanup
  %47 = extractvalue { i8*, i32 } %46, 0
  %48 = extractvalue { i8*, i32 } %46, 1
  %49 = getelementptr inbounds { i8*, i32 }, { i8*, i32 }* %2, i32 0, i32 0
  store i8* %47, i8** %49, align 8
  %50 = getelementptr inbounds { i8*, i32 }, { i8*, i32 }* %2, i32 0, i32 1
  store i32 %48, i32* %50, align 8
  br label %bb24

bb7:                                              ; preds = %bb6
  store i64* %45, i64** %output_capture, align 8, !dbg !885
  store i8 1, i8* %_41, align 1, !dbg !887
; invoke <core::option::Option<T> as core::clone::Clone>::clone
  %_19 = invoke i64* @"_ZN68_$LT$core..option..Option$LT$T$GT$$u20$as$u20$core..clone..Clone$GT$5clone17h8a15148667383757E"(i64** align 8 dereferenceable(8) %output_capture)
          to label %bb8 unwind label %cleanup6, !dbg !888

bb32:                                             ; preds = %bb29, %bb30, %cleanup5
  %51 = load i8, i8* %_42, align 1, !dbg !889, !range !769
  %52 = trunc i8 %51 to i1, !dbg !889
  br i1 %52, label %bb31, label %bb24, !dbg !889

cleanup5:                                         ; preds = %bb6
  %53 = landingpad { i8*, i32 }
          cleanup
  %54 = extractvalue { i8*, i32 } %53, 0
  %55 = extractvalue { i8*, i32 } %53, 1
  %56 = getelementptr inbounds { i8*, i32 }, { i8*, i32 }* %2, i32 0, i32 0
  store i8* %54, i8** %56, align 8
  %57 = getelementptr inbounds { i8*, i32 }, { i8*, i32 }* %2, i32 0, i32 1
  store i32 %55, i32* %57, align 8
  br label %bb32

bb8:                                              ; preds = %bb7
; invoke std::io::stdio::set_output_capture
  %58 = invoke i64* @_ZN3std2io5stdio18set_output_capture17h5b0d0cafcb5e3848E(i64* %_19)
          to label %bb9 unwind label %cleanup6, !dbg !890

bb30:                                             ; preds = %cleanup6
  %59 = load i8, i8* %_41, align 1, !dbg !891, !range !769
  %60 = trunc i8 %59 to i1, !dbg !891
  br i1 %60, label %bb29, label %bb32, !dbg !891

cleanup6:                                         ; preds = %bb10, %bb13, %bb12, %bb9, %bb8, %bb7
  %61 = landingpad { i8*, i32 }
          cleanup
  %62 = extractvalue { i8*, i32 } %61, 0
  %63 = extractvalue { i8*, i32 } %61, 1
  %64 = getelementptr inbounds { i8*, i32 }, { i8*, i32 }* %2, i32 0, i32 0
  store i8* %62, i8** %64, align 8
  %65 = getelementptr inbounds { i8*, i32 }, { i8*, i32 }* %2, i32 0, i32 1
  store i32 %63, i32* %65, align 8
  br label %bb30

bb9:                                              ; preds = %bb8
  store i64* %58, i64** %_18, align 8, !dbg !890
; invoke core::ptr::drop_in_place<core::option::Option<alloc::sync::Arc<std::sync::mutex::Mutex<alloc::vec::Vec<u8>>>>>
  invoke void @"_ZN4core3ptr129drop_in_place$LT$core..option..Option$LT$alloc..sync..Arc$LT$std..sync..mutex..Mutex$LT$alloc..vec..Vec$LT$u8$GT$$GT$$GT$$GT$$GT$17h77905d1796e37b8aE"(i64** %_18)
          to label %bb10 unwind label %cleanup6, !dbg !892

bb10:                                             ; preds = %bb9
  store i8 0, i8* %_43, align 1, !dbg !893
  store i8 0, i8* %_41, align 1, !dbg !893
  store i8 0, i8* %_45, align 1, !dbg !893
  store i8 0, i8* %_42, align 1, !dbg !893
  %66 = bitcast %"[closure@std::thread::Builder::spawn_unchecked<[closure@three_threads.rs:7:16: 10:3], ()>::{closure#0}]"* %main to i64**, !dbg !893
  %67 = load i64*, i64** %their_thread, align 8, !dbg !893, !nonnull !4
  store i64* %67, i64** %66, align 8, !dbg !893
  %68 = getelementptr inbounds %"[closure@std::thread::Builder::spawn_unchecked<[closure@three_threads.rs:7:16: 10:3], ()>::{closure#0}]", %"[closure@std::thread::Builder::spawn_unchecked<[closure@three_threads.rs:7:16: 10:3], ()>::{closure#0}]"* %main, i32 0, i32 2, !dbg !893
  %69 = load i64*, i64** %output_capture, align 8, !dbg !893
  store i64* %69, i64** %68, align 8, !dbg !893
  %70 = bitcast %"[closure@std::thread::Builder::spawn_unchecked<[closure@three_threads.rs:7:16: 10:3], ()>::{closure#0}]"* %main to %"[closure@three_threads.rs:7:16: 10:3]"*, !dbg !893
  %71 = getelementptr inbounds %"[closure@std::thread::Builder::spawn_unchecked<[closure@three_threads.rs:7:16: 10:3], ()>::{closure#0}]", %"[closure@std::thread::Builder::spawn_unchecked<[closure@three_threads.rs:7:16: 10:3], ()>::{closure#0}]"* %main, i32 0, i32 3, !dbg !893
  %72 = load i64*, i64** %their_packet, align 8, !dbg !893, !nonnull !4
  store i64* %72, i64** %71, align 8, !dbg !893
  %73 = bitcast %"[closure@std::thread::Builder::spawn_unchecked<[closure@three_threads.rs:7:16: 10:3], ()>::{closure#0}]"* %_33 to i8*, !dbg !894
  %74 = bitcast %"[closure@std::thread::Builder::spawn_unchecked<[closure@three_threads.rs:7:16: 10:3], ()>::{closure#0}]"* %main to i8*, !dbg !894
  call void @llvm.memcpy.p0i8.p0i8.i64(i8* align 8 %73, i8* align 8 %74, i64 24, i1 false), !dbg !894
  call void @llvm.experimental.noalias.scope.decl(metadata !895), !dbg !898
  call void @llvm.dbg.declare(metadata %"[closure@std::thread::Builder::spawn_unchecked<[closure@three_threads.rs:7:16: 10:3], ()>::{closure#0}]"* %_33, metadata !899, metadata !DIExpression()), !dbg !909
; invoke alloc::alloc::exchange_malloc
  %75 = invoke i8* @_ZN5alloc5alloc15exchange_malloc17hb437f7c1dbe84dfdE(i64 24, i64 8)
          to label %"_ZN5alloc5boxed12Box$LT$T$GT$3new17h92ba96f9285922e4E.exit" unwind label %cleanup6, !dbg !911

"_ZN5alloc5boxed12Box$LT$T$GT$3new17h92ba96f9285922e4E.exit": ; preds = %bb10
  %76 = bitcast i8* %75 to %"[closure@std::thread::Builder::spawn_unchecked<[closure@three_threads.rs:7:16: 10:3], ()>::{closure#0}]"*, !dbg !911
  %77 = bitcast %"[closure@std::thread::Builder::spawn_unchecked<[closure@three_threads.rs:7:16: 10:3], ()>::{closure#0}]"* %_33 to i8*, !dbg !912
  call void @llvm.memcpy.p0i8.p0i8.i64(i8* align 8 %75, i8* align 8 %77, i64 24, i1 false), !dbg !912
  br label %bb11, !dbg !913

bb11:                                             ; preds = %"_ZN5alloc5boxed12Box$LT$T$GT$3new17h92ba96f9285922e4E.exit"
  %78 = bitcast %"[closure@std::thread::Builder::spawn_unchecked<[closure@three_threads.rs:7:16: 10:3], ()>::{closure#0}]"* %76 to {}*, !dbg !898
  %79 = bitcast {}* %78 to i8*, !dbg !898
  %_31.0 = bitcast i8* %79 to {}*, !dbg !898
  %80 = getelementptr inbounds { {}*, [3 x i64]* }, { {}*, [3 x i64]* }* %1, i32 0, i32 0, !dbg !914
  store {}* %_31.0, {}** %80, align 8, !dbg !914
  %81 = getelementptr inbounds { {}*, [3 x i64]* }, { {}*, [3 x i64]* }* %1, i32 0, i32 1, !dbg !914
  store [3 x i64]* bitcast (<{ i8*, [16 x i8], i8*, [0 x i8] }>* @vtable.1 to [3 x i64]*), [3 x i64]** %81, align 8, !dbg !914
  %82 = getelementptr inbounds { {}*, [3 x i64]* }, { {}*, [3 x i64]* }* %1, i32 0, i32 0, !dbg !914
  %_30.0 = load {}*, {}** %82, align 8, !dbg !914, !nonnull !4
  %83 = getelementptr inbounds { {}*, [3 x i64]* }, { {}*, [3 x i64]* }* %1, i32 0, i32 1, !dbg !914
  %_30.1 = load [3 x i64]*, [3 x i64]** %83, align 8, !dbg !914, !nonnull !4
  br label %bb12, !dbg !914

bb12:                                             ; preds = %bb11
; invoke std::sys::unix::thread::Thread::new
  invoke void @_ZN3std3sys4unix6thread6Thread3new17h235fa0bcfeb648f1E(%"std::result::Result<std::sys::unix::thread::Thread, std::io::Error>"* noalias nocapture sret(%"std::result::Result<std::sys::unix::thread::Thread, std::io::Error>") dereferenceable(24) %_27, i64 %stack_size, {}* noalias nonnull align 1 %_30.0, [3 x i64]* align 8 dereferenceable(24) %_30.1)
          to label %bb13 unwind label %cleanup6, !dbg !915

bb13:                                             ; preds = %bb12
; invoke <core::result::Result<T,E> as core::ops::try_trait::Try>::branch
  invoke void @"_ZN79_$LT$core..result..Result$LT$T$C$E$GT$$u20$as$u20$core..ops..try_trait..Try$GT$6branch17hff2d9cdb2a95df91E"(%"std::ops::ControlFlow<std::result::Result<std::convert::Infallible, std::io::Error>, std::sys::unix::thread::Thread>"* noalias nocapture sret(%"std::ops::ControlFlow<std::result::Result<std::convert::Infallible, std::io::Error>, std::sys::unix::thread::Thread>") dereferenceable(24) %_26, %"std::result::Result<std::sys::unix::thread::Thread, std::io::Error>"* noalias nocapture dereferenceable(24) %_27)
          to label %bb14 unwind label %cleanup6, !dbg !915

bb14:                                             ; preds = %bb13
  %84 = bitcast %"std::ops::ControlFlow<std::result::Result<std::convert::Infallible, std::io::Error>, std::sys::unix::thread::Thread>"* %_26 to i64*, !dbg !915
  %_34 = load i64, i64* %84, align 8, !dbg !915, !range !852
  switch i64 %_34, label %bb16 [
    i64 0, label %bb15
    i64 1, label %bb17
  ], !dbg !915

bb29:                                             ; preds = %bb30
; call core::ptr::drop_in_place<core::option::Option<alloc::sync::Arc<std::sync::mutex::Mutex<alloc::vec::Vec<u8>>>>>
  call void @"_ZN4core3ptr129drop_in_place$LT$core..option..Option$LT$alloc..sync..Arc$LT$std..sync..mutex..Mutex$LT$alloc..vec..Vec$LT$u8$GT$$GT$$GT$$GT$$GT$17h77905d1796e37b8aE"(i64** %output_capture) #14, !dbg !891
  br label %bb32, !dbg !891

bb31:                                             ; preds = %bb32
; call core::ptr::drop_in_place<alloc::sync::Arc<core::cell::UnsafeCell<core::option::Option<core::result::Result<(),alloc::boxed::Box<dyn core::any::Any+core::marker::Send>>>>>>
  call void @"_ZN4core3ptr212drop_in_place$LT$alloc..sync..Arc$LT$core..cell..UnsafeCell$LT$core..option..Option$LT$core..result..Result$LT$$LP$$RP$$C$alloc..boxed..Box$LT$dyn$u20$core..any..Any$u2b$core..marker..Send$GT$$GT$$GT$$GT$$GT$$GT$17hd930061a4e94938bE"(i64** %their_packet) #14, !dbg !889
  br label %bb24, !dbg !889

bb33:                                             ; preds = %bb34
; call core::ptr::drop_in_place<std::thread::Thread>
  call void @"_ZN4core3ptr40drop_in_place$LT$std..thread..Thread$GT$17h2abb1c9a01ac885cE"(i64** %their_thread) #14, !dbg !881
  br label %bb25, !dbg !881

bb26:                                             ; preds = %bb28, %bb35, %bb36
  %85 = load i8, i8* %_45, align 1, !dbg !858, !range !769
  %86 = trunc i8 %85 to i1, !dbg !858
  br i1 %86, label %bb37, label %bb27, !dbg !858

bb35:                                             ; preds = %bb36
; call core::ptr::drop_in_place<core::option::Option<alloc::string::String>>
  call void @"_ZN4core3ptr70drop_in_place$LT$core..option..Option$LT$alloc..string..String$GT$$GT$17h980416ab9ed90a3aE"(%"std::option::Option<std::string::String>"* %name) #14, !dbg !858
  br label %bb26, !dbg !858

bb16:                                             ; preds = %bb14
  unreachable, !dbg !915

bb15:                                             ; preds = %bb14
  %87 = bitcast %"std::ops::ControlFlow<std::result::Result<std::convert::Infallible, std::io::Error>, std::sys::unix::thread::Thread>"* %_26 to %"std::ops::ControlFlow<std::result::Result<std::convert::Infallible, std::io::Error>, std::sys::unix::thread::Thread>::Continue"*, !dbg !915
  %88 = getelementptr inbounds %"std::ops::ControlFlow<std::result::Result<std::convert::Infallible, std::io::Error>, std::sys::unix::thread::Thread>::Continue", %"std::ops::ControlFlow<std::result::Result<std::convert::Infallible, std::io::Error>, std::sys::unix::thread::Thread>::Continue"* %87, i32 0, i32 1, !dbg !915
  %val = load i64, i64* %88, align 8, !dbg !915
  store i64 %val, i64* %val.dbg.spill, align 8, !dbg !915
  call void @llvm.dbg.declare(metadata i64* %val.dbg.spill, metadata !838, metadata !DIExpression()), !dbg !916
  %89 = bitcast { i64, i64 }* %_24 to %"std::option::Option<std::sys::unix::thread::Thread>::Some"*, !dbg !917
  %90 = getelementptr inbounds %"std::option::Option<std::sys::unix::thread::Thread>::Some", %"std::option::Option<std::sys::unix::thread::Thread>::Some"* %89, i32 0, i32 1, !dbg !917
  store i64 %val, i64* %90, align 8, !dbg !917
  %91 = bitcast { i64, i64 }* %_24 to i64*, !dbg !917
  store i64 1, i64* %91, align 8, !dbg !917
  %_38 = load i64*, i64** %my_thread, align 8, !dbg !918, !nonnull !4
  %_40 = load i64*, i64** %my_packet, align 8, !dbg !919, !nonnull !4
  store i64* %_40, i64** %_39, align 8, !dbg !920
  %92 = bitcast %"std::thread::JoinInner<()>"* %_23 to { i64, i64 }*, !dbg !921
  %93 = getelementptr inbounds { i64, i64 }, { i64, i64 }* %_24, i32 0, i32 0, !dbg !921
  %94 = load i64, i64* %93, align 8, !dbg !921, !range !852
  %95 = getelementptr inbounds { i64, i64 }, { i64, i64 }* %_24, i32 0, i32 1, !dbg !921
  %96 = load i64, i64* %95, align 8, !dbg !921
  %97 = getelementptr inbounds { i64, i64 }, { i64, i64 }* %92, i32 0, i32 0, !dbg !921
  store i64 %94, i64* %97, align 8, !dbg !921
  %98 = getelementptr inbounds { i64, i64 }, { i64, i64 }* %92, i32 0, i32 1, !dbg !921
  store i64 %96, i64* %98, align 8, !dbg !921
  %99 = getelementptr inbounds %"std::thread::JoinInner<()>", %"std::thread::JoinInner<()>"* %_23, i32 0, i32 1, !dbg !921
  store i64* %_38, i64** %99, align 8, !dbg !921
  %100 = getelementptr inbounds %"std::thread::JoinInner<()>", %"std::thread::JoinInner<()>"* %_23, i32 0, i32 2, !dbg !921
  %101 = load i64*, i64** %_39, align 8, !dbg !921, !nonnull !4
  store i64* %101, i64** %100, align 8, !dbg !921
  %102 = bitcast %"std::thread::JoinHandle<()>"* %_22 to %"std::thread::JoinInner<()>"*, !dbg !922
  %103 = bitcast %"std::thread::JoinInner<()>"* %102 to i8*, !dbg !922
  %104 = bitcast %"std::thread::JoinInner<()>"* %_23 to i8*, !dbg !922
  call void @llvm.memcpy.p0i8.p0i8.i64(i8* align 8 %103, i8* align 8 %104, i64 32, i1 false), !dbg !922
  %105 = bitcast %"std::result::Result<std::thread::JoinHandle<()>, std::io::Error>"* %0 to %"std::result::Result<std::thread::JoinHandle<()>, std::io::Error>::Ok"*, !dbg !923
  %106 = getelementptr inbounds %"std::result::Result<std::thread::JoinHandle<()>, std::io::Error>::Ok", %"std::result::Result<std::thread::JoinHandle<()>, std::io::Error>::Ok"* %105, i32 0, i32 1, !dbg !923
  %107 = bitcast %"std::thread::JoinHandle<()>"* %106 to i8*, !dbg !923
  %108 = bitcast %"std::thread::JoinHandle<()>"* %_22 to i8*, !dbg !923
  call void @llvm.memcpy.p0i8.p0i8.i64(i8* align 8 %107, i8* align 8 %108, i64 32, i1 false), !dbg !923
  %109 = bitcast %"std::result::Result<std::thread::JoinHandle<()>, std::io::Error>"* %0 to i64*, !dbg !923
  store i64 0, i64* %109, align 8, !dbg !923
  store i8 0, i8* %_41, align 1, !dbg !891
  store i8 0, i8* %_42, align 1, !dbg !889
  store i8 0, i8* %_43, align 1, !dbg !881
  store i8 0, i8* %_44, align 1, !dbg !858
  br label %bb21, !dbg !858

bb17:                                             ; preds = %bb14
  %110 = bitcast %"std::ops::ControlFlow<std::result::Result<std::convert::Infallible, std::io::Error>, std::sys::unix::thread::Thread>"* %_26 to %"std::ops::ControlFlow<std::result::Result<std::convert::Infallible, std::io::Error>, std::sys::unix::thread::Thread>::Break"*, !dbg !924
  %111 = getelementptr inbounds %"std::ops::ControlFlow<std::result::Result<std::convert::Infallible, std::io::Error>, std::sys::unix::thread::Thread>::Break", %"std::ops::ControlFlow<std::result::Result<std::convert::Infallible, std::io::Error>, std::sys::unix::thread::Thread>::Break"* %110, i32 0, i32 1, !dbg !924
  %112 = bitcast %"std::result::Result<std::convert::Infallible, std::io::Error>::Err"* %residual to i8*, !dbg !924
  %113 = bitcast %"std::result::Result<std::convert::Infallible, std::io::Error>::Err"* %111 to i8*, !dbg !924
  call void @llvm.memcpy.p0i8.p0i8.i64(i8* align 8 %112, i8* align 8 %113, i64 16, i1 false), !dbg !924
  %114 = bitcast %"std::result::Result<std::convert::Infallible, std::io::Error>::Err"* %_36 to i8*, !dbg !849
  %115 = bitcast %"std::result::Result<std::convert::Infallible, std::io::Error>::Err"* %residual to i8*, !dbg !849
  call void @llvm.memcpy.p0i8.p0i8.i64(i8* align 8 %114, i8* align 8 %115, i64 16, i1 false), !dbg !849
  %116 = bitcast %"std::result::Result<std::convert::Infallible, std::io::Error>::Err"* %_36 to i128*, !dbg !925
  %117 = load i128, i128* %116, align 8, !dbg !925
; invoke <core::result::Result<T,F> as core::ops::try_trait::FromResidual<core::result::Result<core::convert::Infallible,E>>>::from_residual
  invoke void @"_ZN153_$LT$core..result..Result$LT$T$C$F$GT$$u20$as$u20$core..ops..try_trait..FromResidual$LT$core..result..Result$LT$core..convert..Infallible$C$E$GT$$GT$$GT$13from_residual17h79cfa5838ac5099dE"(%"std::result::Result<std::thread::JoinHandle<()>, std::io::Error>"* noalias nocapture sret(%"std::result::Result<std::thread::JoinHandle<()>, std::io::Error>") dereferenceable(40) %0, i128 %117)
          to label %bb18 unwind label %cleanup7, !dbg !925

bb18:                                             ; preds = %bb17
  store i8 0, i8* %_41, align 1, !dbg !891
  store i8 0, i8* %_42, align 1, !dbg !889
; invoke core::ptr::drop_in_place<alloc::sync::Arc<core::cell::UnsafeCell<core::option::Option<core::result::Result<(),alloc::boxed::Box<dyn core::any::Any+core::marker::Send>>>>>>
  invoke void @"_ZN4core3ptr212drop_in_place$LT$alloc..sync..Arc$LT$core..cell..UnsafeCell$LT$core..option..Option$LT$core..result..Result$LT$$LP$$RP$$C$alloc..boxed..Box$LT$dyn$u20$core..any..Any$u2b$core..marker..Send$GT$$GT$$GT$$GT$$GT$$GT$17hd930061a4e94938bE"(i64** %my_packet)
          to label %bb19 unwind label %cleanup8, !dbg !886

bb22:                                             ; preds = %cleanup7
; call core::ptr::drop_in_place<alloc::sync::Arc<core::cell::UnsafeCell<core::option::Option<core::result::Result<(),alloc::boxed::Box<dyn core::any::Any+core::marker::Send>>>>>>
  call void @"_ZN4core3ptr212drop_in_place$LT$alloc..sync..Arc$LT$core..cell..UnsafeCell$LT$core..option..Option$LT$core..result..Result$LT$$LP$$RP$$C$alloc..boxed..Box$LT$dyn$u20$core..any..Any$u2b$core..marker..Send$GT$$GT$$GT$$GT$$GT$$GT$17hd930061a4e94938bE"(i64** %my_packet) #14, !dbg !886
  br label %bb23, !dbg !886

cleanup7:                                         ; preds = %bb17
  %118 = landingpad { i8*, i32 }
          cleanup
  %119 = extractvalue { i8*, i32 } %118, 0
  %120 = extractvalue { i8*, i32 } %118, 1
  %121 = getelementptr inbounds { i8*, i32 }, { i8*, i32 }* %2, i32 0, i32 0
  store i8* %119, i8** %121, align 8
  %122 = getelementptr inbounds { i8*, i32 }, { i8*, i32 }* %2, i32 0, i32 1
  store i32 %120, i32* %122, align 8
  br label %bb22

bb23:                                             ; preds = %cleanup8, %bb22
; call core::ptr::drop_in_place<std::thread::Thread>
  call void @"_ZN4core3ptr40drop_in_place$LT$std..thread..Thread$GT$17h2abb1c9a01ac885cE"(i64** %my_thread) #14, !dbg !879
  br label %bb28, !dbg !879

bb19:                                             ; preds = %bb18
  store i8 0, i8* %_43, align 1, !dbg !881
; invoke core::ptr::drop_in_place<std::thread::Thread>
  invoke void @"_ZN4core3ptr40drop_in_place$LT$std..thread..Thread$GT$17h2abb1c9a01ac885cE"(i64** %my_thread)
          to label %bb20 unwind label %cleanup9, !dbg !879

cleanup8:                                         ; preds = %bb18
  %123 = landingpad { i8*, i32 }
          cleanup
  %124 = extractvalue { i8*, i32 } %123, 0
  %125 = extractvalue { i8*, i32 } %123, 1
  %126 = getelementptr inbounds { i8*, i32 }, { i8*, i32 }* %2, i32 0, i32 0
  store i8* %124, i8** %126, align 8
  %127 = getelementptr inbounds { i8*, i32 }, { i8*, i32 }* %2, i32 0, i32 1
  store i32 %125, i32* %127, align 8
  br label %bb23

bb28:                                             ; preds = %cleanup9, %bb23
  br label %bb26, !dbg !858

bb20:                                             ; preds = %bb19
  store i8 0, i8* %_44, align 1, !dbg !858
  br label %bb21, !dbg !858

cleanup9:                                         ; preds = %bb19
  %128 = landingpad { i8*, i32 }
          cleanup
  %129 = extractvalue { i8*, i32 } %128, 0
  %130 = extractvalue { i8*, i32 } %128, 1
  %131 = getelementptr inbounds { i8*, i32 }, { i8*, i32 }* %2, i32 0, i32 0
  store i8* %129, i8** %131, align 8
  %132 = getelementptr inbounds { i8*, i32 }, { i8*, i32 }* %2, i32 0, i32 1
  store i32 %130, i32* %132, align 8
  br label %bb28

bb27:                                             ; preds = %bb37, %bb26
  %133 = bitcast { i8*, i32 }* %2 to i8**, !dbg !926
  %134 = load i8*, i8** %133, align 8, !dbg !926
  %135 = getelementptr inbounds { i8*, i32 }, { i8*, i32 }* %2, i32 0, i32 1, !dbg !926
  %136 = load i32, i32* %135, align 8, !dbg !926
  %137 = insertvalue { i8*, i32 } undef, i8* %134, 0, !dbg !926
  %138 = insertvalue { i8*, i32 } %137, i32 %136, 1, !dbg !926
  resume { i8*, i32 } %138, !dbg !926

bb37:                                             ; preds = %bb26
  br label %bb27, !dbg !858

bb21:                                             ; preds = %bb15, %bb20
  ret void, !dbg !927
}

; std::thread::Builder::spawn_unchecked
; Function Attrs: uwtable
define internal void @_ZN3std6thread7Builder15spawn_unchecked17hbd4e96ca9c512bc6E(%"std::result::Result<std::thread::JoinHandle<()>, std::io::Error>"* noalias nocapture sret(%"std::result::Result<std::thread::JoinHandle<()>, std::io::Error>") dereferenceable(40) %0, %"std::thread::Builder"* noalias nocapture dereferenceable(40) %self) unnamed_addr #0 personality i32 (i32, i32, i64, %"unwind::libunwind::_Unwind_Exception"*, %"unwind::libunwind::_Unwind_Context"*)* @rust_eh_personality !dbg !928 {
start:
  %_2.i = alloca %"std::option::Option<std::result::Result<(), std::boxed::Box<dyn std::any::Any + std::marker::Send>>>", align 8
  %val.dbg.spill = alloca i64, align 8
  %1 = alloca { {}*, [3 x i64]* }, align 8
  %stack_size.dbg.spill1 = alloca i64, align 8
  %2 = alloca { i8*, i32 }, align 8
  %stack_size.dbg.spill = alloca { i64, i64 }, align 8
  %f.dbg.spill = alloca %"[closure@three_threads.rs:12:16: 15:3]", align 1
  %_45 = alloca i8, align 1
  %_44 = alloca i8, align 1
  %_43 = alloca i8, align 1
  %_42 = alloca i8, align 1
  %_41 = alloca i8, align 1
  %_39 = alloca i64*, align 8
  %_36 = alloca %"std::result::Result<std::convert::Infallible, std::io::Error>::Err", align 8
  %residual = alloca %"std::result::Result<std::convert::Infallible, std::io::Error>::Err", align 8
  %_33 = alloca %"[closure@std::thread::Builder::spawn_unchecked<[closure@three_threads.rs:12:16: 15:3], ()>::{closure#0}]", align 8
  %_27 = alloca %"std::result::Result<std::sys::unix::thread::Thread, std::io::Error>", align 8
  %_26 = alloca %"std::ops::ControlFlow<std::result::Result<std::convert::Infallible, std::io::Error>, std::sys::unix::thread::Thread>", align 8
  %_24 = alloca { i64, i64 }, align 8
  %_23 = alloca %"std::thread::JoinInner<()>", align 8
  %_22 = alloca %"std::thread::JoinHandle<()>", align 8
  %main = alloca %"[closure@std::thread::Builder::spawn_unchecked<[closure@three_threads.rs:12:16: 15:3], ()>::{closure#0}]", align 8
  %_18 = alloca i64*, align 8
  %_17 = alloca i64*, align 8
  %output_capture = alloca i64*, align 8
  %their_packet = alloca i64*, align 8
  %_13 = alloca %"std::option::Option<std::result::Result<(), std::boxed::Box<dyn std::any::Any + std::marker::Send>>>", align 8
  %_12 = alloca %"std::cell::UnsafeCell<std::option::Option<std::result::Result<(), std::boxed::Box<dyn std::any::Any + std::marker::Send>>>>", align 8
  %my_packet = alloca i64*, align 8
  %their_thread = alloca i64*, align 8
  %_8 = alloca %"std::option::Option<std::string::String>", align 8
  %my_thread = alloca i64*, align 8
  %name = alloca %"std::option::Option<std::string::String>", align 8
  call void @llvm.dbg.declare(metadata %"std::thread::Builder"* %self, metadata !932, metadata !DIExpression()), !dbg !955
  call void @llvm.dbg.declare(metadata %"[closure@three_threads.rs:12:16: 15:3]"* %f.dbg.spill, metadata !933, metadata !DIExpression()), !dbg !956
  call void @llvm.dbg.declare(metadata %"std::option::Option<std::string::String>"* %name, metadata !934, metadata !DIExpression()), !dbg !957
  call void @llvm.dbg.declare(metadata i64** %my_thread, metadata !939, metadata !DIExpression()), !dbg !958
  call void @llvm.dbg.declare(metadata i64** %their_thread, metadata !941, metadata !DIExpression()), !dbg !959
  call void @llvm.dbg.declare(metadata i64** %my_packet, metadata !943, metadata !DIExpression()), !dbg !960
  call void @llvm.dbg.declare(metadata i64** %their_packet, metadata !945, metadata !DIExpression()), !dbg !961
  call void @llvm.dbg.declare(metadata i64** %output_capture, metadata !947, metadata !DIExpression()), !dbg !962
  call void @llvm.dbg.declare(metadata %"[closure@std::thread::Builder::spawn_unchecked<[closure@three_threads.rs:12:16: 15:3], ()>::{closure#0}]"* %main, metadata !949, metadata !DIExpression()), !dbg !963
  call void @llvm.dbg.declare(metadata %"std::result::Result<std::convert::Infallible, std::io::Error>::Err"* %residual, metadata !951, metadata !DIExpression()), !dbg !964
  store i8 0, i8* %_41, align 1, !dbg !965
  store i8 0, i8* %_45, align 1, !dbg !965
  store i8 0, i8* %_43, align 1, !dbg !965
  store i8 0, i8* %_42, align 1, !dbg !965
  store i8 0, i8* %_44, align 1, !dbg !965
  store i8 1, i8* %_45, align 1, !dbg !965
  store i8 1, i8* %_44, align 1, !dbg !965
  %3 = bitcast %"std::thread::Builder"* %self to %"std::option::Option<std::string::String>"*, !dbg !965
  %4 = bitcast %"std::option::Option<std::string::String>"* %name to i8*, !dbg !965
  %5 = bitcast %"std::option::Option<std::string::String>"* %3 to i8*, !dbg !965
  call void @llvm.memcpy.p0i8.p0i8.i64(i8* align 8 %4, i8* align 8 %5, i64 24, i1 false), !dbg !965
  %6 = getelementptr inbounds %"std::thread::Builder", %"std::thread::Builder"* %self, i32 0, i32 1, !dbg !966
  %7 = getelementptr inbounds { i64, i64 }, { i64, i64 }* %6, i32 0, i32 0, !dbg !966
  %stack_size.0 = load i64, i64* %7, align 8, !dbg !966, !range !852
  %8 = getelementptr inbounds { i64, i64 }, { i64, i64 }* %6, i32 0, i32 1, !dbg !966
  %stack_size.1 = load i64, i64* %8, align 8, !dbg !966
  %9 = getelementptr inbounds { i64, i64 }, { i64, i64 }* %stack_size.dbg.spill, i32 0, i32 0, !dbg !966
  store i64 %stack_size.0, i64* %9, align 8, !dbg !966
  %10 = getelementptr inbounds { i64, i64 }, { i64, i64 }* %stack_size.dbg.spill, i32 0, i32 1, !dbg !966
  store i64 %stack_size.1, i64* %10, align 8, !dbg !966
  call void @llvm.dbg.declare(metadata { i64, i64 }* %stack_size.dbg.spill, metadata !936, metadata !DIExpression()), !dbg !967
; invoke core::option::Option<T>::unwrap_or_else
  %stack_size = invoke i64 @"_ZN4core6option15Option$LT$T$GT$14unwrap_or_else17hee0778e1d0f6c7a8E"(i64 %stack_size.0, i64 %stack_size.1)
          to label %bb1 unwind label %cleanup, !dbg !968

bb1:                                              ; preds = %start
  store i64 %stack_size, i64* %stack_size.dbg.spill1, align 8, !dbg !968
  call void @llvm.dbg.declare(metadata i64* %stack_size.dbg.spill1, metadata !937, metadata !DIExpression()), !dbg !969
  store i8 0, i8* %_44, align 1, !dbg !970
  %11 = bitcast %"std::option::Option<std::string::String>"* %_8 to i8*, !dbg !970
  %12 = bitcast %"std::option::Option<std::string::String>"* %name to i8*, !dbg !970
  call void @llvm.memcpy.p0i8.p0i8.i64(i8* align 8 %11, i8* align 8 %12, i64 24, i1 false), !dbg !970
; invoke std::thread::Thread::new
  %13 = invoke nonnull i64* @_ZN3std6thread6Thread3new17h7059b23a8ba95997E(%"std::option::Option<std::string::String>"* noalias nocapture dereferenceable(24) %_8)
          to label %bb2 unwind label %cleanup, !dbg !971

bb36:                                             ; preds = %bb25, %cleanup
  %14 = load i8, i8* %_44, align 1, !dbg !972, !range !769
  %15 = trunc i8 %14 to i1, !dbg !972
  br i1 %15, label %bb35, label %bb26, !dbg !972

cleanup:                                          ; preds = %bb1, %start
  %16 = landingpad { i8*, i32 }
          cleanup
  %17 = extractvalue { i8*, i32 } %16, 0
  %18 = extractvalue { i8*, i32 } %16, 1
  %19 = getelementptr inbounds { i8*, i32 }, { i8*, i32 }* %2, i32 0, i32 0
  store i8* %17, i8** %19, align 8
  %20 = getelementptr inbounds { i8*, i32 }, { i8*, i32 }* %2, i32 0, i32 1
  store i32 %18, i32* %20, align 8
  br label %bb36

bb2:                                              ; preds = %bb1
  store i64* %13, i64** %my_thread, align 8, !dbg !971
; invoke <std::thread::Thread as core::clone::Clone>::clone
  %21 = invoke nonnull i64* @"_ZN58_$LT$std..thread..Thread$u20$as$u20$core..clone..Clone$GT$5clone17h173cd6e89c046a0bE"(i64** align 8 dereferenceable(8) %my_thread)
          to label %bb3 unwind label %cleanup2, !dbg !973

bb3:                                              ; preds = %bb2
  store i64* %21, i64** %their_thread, align 8, !dbg !973
  store i8 1, i8* %_43, align 1, !dbg !974
  %22 = bitcast %"std::option::Option<std::result::Result<(), std::boxed::Box<dyn std::any::Any + std::marker::Send>>>"* %_13 to i64*, !dbg !975
  store i64 0, i64* %22, align 8, !dbg !975
  call void @llvm.experimental.noalias.scope.decl(metadata !976), !dbg !979
  call void @llvm.experimental.noalias.scope.decl(metadata !980), !dbg !979
  call void @llvm.dbg.declare(metadata %"std::option::Option<std::result::Result<(), std::boxed::Box<dyn std::any::Any + std::marker::Send>>>"* %_13, metadata !868, metadata !DIExpression()), !dbg !982
  %23 = bitcast %"std::option::Option<std::result::Result<(), std::boxed::Box<dyn std::any::Any + std::marker::Send>>>"* %_2.i to i8*, !dbg !984
  %24 = bitcast %"std::option::Option<std::result::Result<(), std::boxed::Box<dyn std::any::Any + std::marker::Send>>>"* %_13 to i8*, !dbg !984
  call void @llvm.memcpy.p0i8.p0i8.i64(i8* align 8 %23, i8* align 8 %24, i64 24, i1 false), !dbg !984, !noalias !976
  %25 = bitcast %"std::cell::UnsafeCell<std::option::Option<std::result::Result<(), std::boxed::Box<dyn std::any::Any + std::marker::Send>>>>"* %_12 to %"std::option::Option<std::result::Result<(), std::boxed::Box<dyn std::any::Any + std::marker::Send>>>"*, !dbg !985
  %26 = bitcast %"std::option::Option<std::result::Result<(), std::boxed::Box<dyn std::any::Any + std::marker::Send>>>"* %25 to i8*, !dbg !985
  %27 = bitcast %"std::option::Option<std::result::Result<(), std::boxed::Box<dyn std::any::Any + std::marker::Send>>>"* %_2.i to i8*, !dbg !985
  call void @llvm.memcpy.p0i8.p0i8.i64(i8* align 8 %26, i8* align 8 %27, i64 24, i1 false), !dbg !985, !noalias !980
  br label %bb4, !dbg !986

bb25:                                             ; preds = %bb33, %bb34, %cleanup2
; call core::ptr::drop_in_place<std::thread::Thread>
  call void @"_ZN4core3ptr40drop_in_place$LT$std..thread..Thread$GT$17h2abb1c9a01ac885cE"(i64** %my_thread) #14, !dbg !987
  br label %bb36, !dbg !987

cleanup2:                                         ; preds = %bb2
  %28 = landingpad { i8*, i32 }
          cleanup
  %29 = extractvalue { i8*, i32 } %28, 0
  %30 = extractvalue { i8*, i32 } %28, 1
  %31 = getelementptr inbounds { i8*, i32 }, { i8*, i32 }* %2, i32 0, i32 0
  store i8* %29, i8** %31, align 8
  %32 = getelementptr inbounds { i8*, i32 }, { i8*, i32 }* %2, i32 0, i32 1
  store i32 %30, i32* %32, align 8
  br label %bb25

bb4:                                              ; preds = %bb3
; invoke alloc::sync::Arc<T>::new
  %33 = invoke nonnull i64* @"_ZN5alloc4sync12Arc$LT$T$GT$3new17hf7c480232d64b6bcE"(%"std::cell::UnsafeCell<std::option::Option<std::result::Result<(), std::boxed::Box<dyn std::any::Any + std::marker::Send>>>>"* noalias nocapture dereferenceable(24) %_12)
          to label %bb5 unwind label %cleanup3, !dbg !988

bb34:                                             ; preds = %bb24, %cleanup3
  %34 = load i8, i8* %_43, align 1, !dbg !989, !range !769
  %35 = trunc i8 %34 to i1, !dbg !989
  br i1 %35, label %bb33, label %bb25, !dbg !989

cleanup3:                                         ; preds = %bb4
  %36 = landingpad { i8*, i32 }
          cleanup
  %37 = extractvalue { i8*, i32 } %36, 0
  %38 = extractvalue { i8*, i32 } %36, 1
  %39 = getelementptr inbounds { i8*, i32 }, { i8*, i32 }* %2, i32 0, i32 0
  store i8* %37, i8** %39, align 8
  %40 = getelementptr inbounds { i8*, i32 }, { i8*, i32 }* %2, i32 0, i32 1
  store i32 %38, i32* %40, align 8
  br label %bb34

bb5:                                              ; preds = %bb4
  store i64* %33, i64** %my_packet, align 8, !dbg !988
; invoke <alloc::sync::Arc<T> as core::clone::Clone>::clone
  %41 = invoke nonnull i64* @"_ZN64_$LT$alloc..sync..Arc$LT$T$GT$$u20$as$u20$core..clone..Clone$GT$5clone17hbcfc9d3f0ec1a187E"(i64** align 8 dereferenceable(8) %my_packet)
          to label %bb6 unwind label %cleanup4, !dbg !990

bb6:                                              ; preds = %bb5
  store i64* %41, i64** %their_packet, align 8, !dbg !990
  store i8 1, i8* %_42, align 1, !dbg !991
  %42 = bitcast i64** %_17 to i8*, !dbg !992
  call void @llvm.memset.p0i8.i64(i8* align 8 %42, i8 0, i64 8, i1 false), !dbg !992
  %43 = bitcast i64** %_17 to {}**, !dbg !992
  store {}* null, {}** %43, align 8, !dbg !992
  %44 = load i64*, i64** %_17, align 8, !dbg !993
; invoke std::io::stdio::set_output_capture
  %45 = invoke i64* @_ZN3std2io5stdio18set_output_capture17h5b0d0cafcb5e3848E(i64* %44)
          to label %bb7 unwind label %cleanup5, !dbg !993

bb24:                                             ; preds = %bb31, %bb32, %cleanup4
; call core::ptr::drop_in_place<alloc::sync::Arc<core::cell::UnsafeCell<core::option::Option<core::result::Result<(),alloc::boxed::Box<dyn core::any::Any+core::marker::Send>>>>>>
  call void @"_ZN4core3ptr212drop_in_place$LT$alloc..sync..Arc$LT$core..cell..UnsafeCell$LT$core..option..Option$LT$core..result..Result$LT$$LP$$RP$$C$alloc..boxed..Box$LT$dyn$u20$core..any..Any$u2b$core..marker..Send$GT$$GT$$GT$$GT$$GT$$GT$17hd930061a4e94938bE"(i64** %my_packet) #14, !dbg !994
  br label %bb34, !dbg !994

cleanup4:                                         ; preds = %bb5
  %46 = landingpad { i8*, i32 }
          cleanup
  %47 = extractvalue { i8*, i32 } %46, 0
  %48 = extractvalue { i8*, i32 } %46, 1
  %49 = getelementptr inbounds { i8*, i32 }, { i8*, i32 }* %2, i32 0, i32 0
  store i8* %47, i8** %49, align 8
  %50 = getelementptr inbounds { i8*, i32 }, { i8*, i32 }* %2, i32 0, i32 1
  store i32 %48, i32* %50, align 8
  br label %bb24

bb7:                                              ; preds = %bb6
  store i64* %45, i64** %output_capture, align 8, !dbg !993
  store i8 1, i8* %_41, align 1, !dbg !995
; invoke <core::option::Option<T> as core::clone::Clone>::clone
  %_19 = invoke i64* @"_ZN68_$LT$core..option..Option$LT$T$GT$$u20$as$u20$core..clone..Clone$GT$5clone17h8a15148667383757E"(i64** align 8 dereferenceable(8) %output_capture)
          to label %bb8 unwind label %cleanup6, !dbg !996

bb32:                                             ; preds = %bb29, %bb30, %cleanup5
  %51 = load i8, i8* %_42, align 1, !dbg !997, !range !769
  %52 = trunc i8 %51 to i1, !dbg !997
  br i1 %52, label %bb31, label %bb24, !dbg !997

cleanup5:                                         ; preds = %bb6
  %53 = landingpad { i8*, i32 }
          cleanup
  %54 = extractvalue { i8*, i32 } %53, 0
  %55 = extractvalue { i8*, i32 } %53, 1
  %56 = getelementptr inbounds { i8*, i32 }, { i8*, i32 }* %2, i32 0, i32 0
  store i8* %54, i8** %56, align 8
  %57 = getelementptr inbounds { i8*, i32 }, { i8*, i32 }* %2, i32 0, i32 1
  store i32 %55, i32* %57, align 8
  br label %bb32

bb8:                                              ; preds = %bb7
; invoke std::io::stdio::set_output_capture
  %58 = invoke i64* @_ZN3std2io5stdio18set_output_capture17h5b0d0cafcb5e3848E(i64* %_19)
          to label %bb9 unwind label %cleanup6, !dbg !998

bb30:                                             ; preds = %cleanup6
  %59 = load i8, i8* %_41, align 1, !dbg !999, !range !769
  %60 = trunc i8 %59 to i1, !dbg !999
  br i1 %60, label %bb29, label %bb32, !dbg !999

cleanup6:                                         ; preds = %bb10, %bb13, %bb12, %bb9, %bb8, %bb7
  %61 = landingpad { i8*, i32 }
          cleanup
  %62 = extractvalue { i8*, i32 } %61, 0
  %63 = extractvalue { i8*, i32 } %61, 1
  %64 = getelementptr inbounds { i8*, i32 }, { i8*, i32 }* %2, i32 0, i32 0
  store i8* %62, i8** %64, align 8
  %65 = getelementptr inbounds { i8*, i32 }, { i8*, i32 }* %2, i32 0, i32 1
  store i32 %63, i32* %65, align 8
  br label %bb30

bb9:                                              ; preds = %bb8
  store i64* %58, i64** %_18, align 8, !dbg !998
; invoke core::ptr::drop_in_place<core::option::Option<alloc::sync::Arc<std::sync::mutex::Mutex<alloc::vec::Vec<u8>>>>>
  invoke void @"_ZN4core3ptr129drop_in_place$LT$core..option..Option$LT$alloc..sync..Arc$LT$std..sync..mutex..Mutex$LT$alloc..vec..Vec$LT$u8$GT$$GT$$GT$$GT$$GT$17h77905d1796e37b8aE"(i64** %_18)
          to label %bb10 unwind label %cleanup6, !dbg !1000

bb10:                                             ; preds = %bb9
  store i8 0, i8* %_43, align 1, !dbg !1001
  store i8 0, i8* %_41, align 1, !dbg !1001
  store i8 0, i8* %_45, align 1, !dbg !1001
  store i8 0, i8* %_42, align 1, !dbg !1001
  %66 = bitcast %"[closure@std::thread::Builder::spawn_unchecked<[closure@three_threads.rs:12:16: 15:3], ()>::{closure#0}]"* %main to i64**, !dbg !1001
  %67 = load i64*, i64** %their_thread, align 8, !dbg !1001, !nonnull !4
  store i64* %67, i64** %66, align 8, !dbg !1001
  %68 = getelementptr inbounds %"[closure@std::thread::Builder::spawn_unchecked<[closure@three_threads.rs:12:16: 15:3], ()>::{closure#0}]", %"[closure@std::thread::Builder::spawn_unchecked<[closure@three_threads.rs:12:16: 15:3], ()>::{closure#0}]"* %main, i32 0, i32 2, !dbg !1001
  %69 = load i64*, i64** %output_capture, align 8, !dbg !1001
  store i64* %69, i64** %68, align 8, !dbg !1001
  %70 = bitcast %"[closure@std::thread::Builder::spawn_unchecked<[closure@three_threads.rs:12:16: 15:3], ()>::{closure#0}]"* %main to %"[closure@three_threads.rs:12:16: 15:3]"*, !dbg !1001
  %71 = getelementptr inbounds %"[closure@std::thread::Builder::spawn_unchecked<[closure@three_threads.rs:12:16: 15:3], ()>::{closure#0}]", %"[closure@std::thread::Builder::spawn_unchecked<[closure@three_threads.rs:12:16: 15:3], ()>::{closure#0}]"* %main, i32 0, i32 3, !dbg !1001
  %72 = load i64*, i64** %their_packet, align 8, !dbg !1001, !nonnull !4
  store i64* %72, i64** %71, align 8, !dbg !1001
  %73 = bitcast %"[closure@std::thread::Builder::spawn_unchecked<[closure@three_threads.rs:12:16: 15:3], ()>::{closure#0}]"* %_33 to i8*, !dbg !1002
  %74 = bitcast %"[closure@std::thread::Builder::spawn_unchecked<[closure@three_threads.rs:12:16: 15:3], ()>::{closure#0}]"* %main to i8*, !dbg !1002
  call void @llvm.memcpy.p0i8.p0i8.i64(i8* align 8 %73, i8* align 8 %74, i64 24, i1 false), !dbg !1002
  call void @llvm.experimental.noalias.scope.decl(metadata !1003), !dbg !1006
  call void @llvm.dbg.declare(metadata %"[closure@std::thread::Builder::spawn_unchecked<[closure@three_threads.rs:12:16: 15:3], ()>::{closure#0}]"* %_33, metadata !1007, metadata !DIExpression()), !dbg !1015
; invoke alloc::alloc::exchange_malloc
  %75 = invoke i8* @_ZN5alloc5alloc15exchange_malloc17hb437f7c1dbe84dfdE(i64 24, i64 8)
          to label %"_ZN5alloc5boxed12Box$LT$T$GT$3new17h47d92fc28a0e0178E.exit" unwind label %cleanup6, !dbg !1017

"_ZN5alloc5boxed12Box$LT$T$GT$3new17h47d92fc28a0e0178E.exit": ; preds = %bb10
  %76 = bitcast i8* %75 to %"[closure@std::thread::Builder::spawn_unchecked<[closure@three_threads.rs:12:16: 15:3], ()>::{closure#0}]"*, !dbg !1017
  %77 = bitcast %"[closure@std::thread::Builder::spawn_unchecked<[closure@three_threads.rs:12:16: 15:3], ()>::{closure#0}]"* %_33 to i8*, !dbg !1018
  call void @llvm.memcpy.p0i8.p0i8.i64(i8* align 8 %75, i8* align 8 %77, i64 24, i1 false), !dbg !1018
  br label %bb11, !dbg !1019

bb11:                                             ; preds = %"_ZN5alloc5boxed12Box$LT$T$GT$3new17h47d92fc28a0e0178E.exit"
  %78 = bitcast %"[closure@std::thread::Builder::spawn_unchecked<[closure@three_threads.rs:12:16: 15:3], ()>::{closure#0}]"* %76 to {}*, !dbg !1006
  %79 = bitcast {}* %78 to i8*, !dbg !1006
  %_31.0 = bitcast i8* %79 to {}*, !dbg !1006
  %80 = getelementptr inbounds { {}*, [3 x i64]* }, { {}*, [3 x i64]* }* %1, i32 0, i32 0, !dbg !1020
  store {}* %_31.0, {}** %80, align 8, !dbg !1020
  %81 = getelementptr inbounds { {}*, [3 x i64]* }, { {}*, [3 x i64]* }* %1, i32 0, i32 1, !dbg !1020
  store [3 x i64]* bitcast (<{ i8*, [16 x i8], i8*, [0 x i8] }>* @vtable.2 to [3 x i64]*), [3 x i64]** %81, align 8, !dbg !1020
  %82 = getelementptr inbounds { {}*, [3 x i64]* }, { {}*, [3 x i64]* }* %1, i32 0, i32 0, !dbg !1020
  %_30.0 = load {}*, {}** %82, align 8, !dbg !1020, !nonnull !4
  %83 = getelementptr inbounds { {}*, [3 x i64]* }, { {}*, [3 x i64]* }* %1, i32 0, i32 1, !dbg !1020
  %_30.1 = load [3 x i64]*, [3 x i64]** %83, align 8, !dbg !1020, !nonnull !4
  br label %bb12, !dbg !1020

bb12:                                             ; preds = %bb11
; invoke std::sys::unix::thread::Thread::new
  invoke void @_ZN3std3sys4unix6thread6Thread3new17h235fa0bcfeb648f1E(%"std::result::Result<std::sys::unix::thread::Thread, std::io::Error>"* noalias nocapture sret(%"std::result::Result<std::sys::unix::thread::Thread, std::io::Error>") dereferenceable(24) %_27, i64 %stack_size, {}* noalias nonnull align 1 %_30.0, [3 x i64]* align 8 dereferenceable(24) %_30.1)
          to label %bb13 unwind label %cleanup6, !dbg !1021

bb13:                                             ; preds = %bb12
; invoke <core::result::Result<T,E> as core::ops::try_trait::Try>::branch
  invoke void @"_ZN79_$LT$core..result..Result$LT$T$C$E$GT$$u20$as$u20$core..ops..try_trait..Try$GT$6branch17hff2d9cdb2a95df91E"(%"std::ops::ControlFlow<std::result::Result<std::convert::Infallible, std::io::Error>, std::sys::unix::thread::Thread>"* noalias nocapture sret(%"std::ops::ControlFlow<std::result::Result<std::convert::Infallible, std::io::Error>, std::sys::unix::thread::Thread>") dereferenceable(24) %_26, %"std::result::Result<std::sys::unix::thread::Thread, std::io::Error>"* noalias nocapture dereferenceable(24) %_27)
          to label %bb14 unwind label %cleanup6, !dbg !1021

bb14:                                             ; preds = %bb13
  %84 = bitcast %"std::ops::ControlFlow<std::result::Result<std::convert::Infallible, std::io::Error>, std::sys::unix::thread::Thread>"* %_26 to i64*, !dbg !1021
  %_34 = load i64, i64* %84, align 8, !dbg !1021, !range !852
  switch i64 %_34, label %bb16 [
    i64 0, label %bb15
    i64 1, label %bb17
  ], !dbg !1021

bb29:                                             ; preds = %bb30
; call core::ptr::drop_in_place<core::option::Option<alloc::sync::Arc<std::sync::mutex::Mutex<alloc::vec::Vec<u8>>>>>
  call void @"_ZN4core3ptr129drop_in_place$LT$core..option..Option$LT$alloc..sync..Arc$LT$std..sync..mutex..Mutex$LT$alloc..vec..Vec$LT$u8$GT$$GT$$GT$$GT$$GT$17h77905d1796e37b8aE"(i64** %output_capture) #14, !dbg !999
  br label %bb32, !dbg !999

bb31:                                             ; preds = %bb32
; call core::ptr::drop_in_place<alloc::sync::Arc<core::cell::UnsafeCell<core::option::Option<core::result::Result<(),alloc::boxed::Box<dyn core::any::Any+core::marker::Send>>>>>>
  call void @"_ZN4core3ptr212drop_in_place$LT$alloc..sync..Arc$LT$core..cell..UnsafeCell$LT$core..option..Option$LT$core..result..Result$LT$$LP$$RP$$C$alloc..boxed..Box$LT$dyn$u20$core..any..Any$u2b$core..marker..Send$GT$$GT$$GT$$GT$$GT$$GT$17hd930061a4e94938bE"(i64** %their_packet) #14, !dbg !997
  br label %bb24, !dbg !997

bb33:                                             ; preds = %bb34
; call core::ptr::drop_in_place<std::thread::Thread>
  call void @"_ZN4core3ptr40drop_in_place$LT$std..thread..Thread$GT$17h2abb1c9a01ac885cE"(i64** %their_thread) #14, !dbg !989
  br label %bb25, !dbg !989

bb26:                                             ; preds = %bb28, %bb35, %bb36
  %85 = load i8, i8* %_45, align 1, !dbg !972, !range !769
  %86 = trunc i8 %85 to i1, !dbg !972
  br i1 %86, label %bb37, label %bb27, !dbg !972

bb35:                                             ; preds = %bb36
; call core::ptr::drop_in_place<core::option::Option<alloc::string::String>>
  call void @"_ZN4core3ptr70drop_in_place$LT$core..option..Option$LT$alloc..string..String$GT$$GT$17h980416ab9ed90a3aE"(%"std::option::Option<std::string::String>"* %name) #14, !dbg !972
  br label %bb26, !dbg !972

bb16:                                             ; preds = %bb14
  unreachable, !dbg !1021

bb15:                                             ; preds = %bb14
  %87 = bitcast %"std::ops::ControlFlow<std::result::Result<std::convert::Infallible, std::io::Error>, std::sys::unix::thread::Thread>"* %_26 to %"std::ops::ControlFlow<std::result::Result<std::convert::Infallible, std::io::Error>, std::sys::unix::thread::Thread>::Continue"*, !dbg !1021
  %88 = getelementptr inbounds %"std::ops::ControlFlow<std::result::Result<std::convert::Infallible, std::io::Error>, std::sys::unix::thread::Thread>::Continue", %"std::ops::ControlFlow<std::result::Result<std::convert::Infallible, std::io::Error>, std::sys::unix::thread::Thread>::Continue"* %87, i32 0, i32 1, !dbg !1021
  %val = load i64, i64* %88, align 8, !dbg !1021
  store i64 %val, i64* %val.dbg.spill, align 8, !dbg !1021
  call void @llvm.dbg.declare(metadata i64* %val.dbg.spill, metadata !953, metadata !DIExpression()), !dbg !1022
  %89 = bitcast { i64, i64 }* %_24 to %"std::option::Option<std::sys::unix::thread::Thread>::Some"*, !dbg !1023
  %90 = getelementptr inbounds %"std::option::Option<std::sys::unix::thread::Thread>::Some", %"std::option::Option<std::sys::unix::thread::Thread>::Some"* %89, i32 0, i32 1, !dbg !1023
  store i64 %val, i64* %90, align 8, !dbg !1023
  %91 = bitcast { i64, i64 }* %_24 to i64*, !dbg !1023
  store i64 1, i64* %91, align 8, !dbg !1023
  %_38 = load i64*, i64** %my_thread, align 8, !dbg !1024, !nonnull !4
  %_40 = load i64*, i64** %my_packet, align 8, !dbg !1025, !nonnull !4
  store i64* %_40, i64** %_39, align 8, !dbg !1026
  %92 = bitcast %"std::thread::JoinInner<()>"* %_23 to { i64, i64 }*, !dbg !1027
  %93 = getelementptr inbounds { i64, i64 }, { i64, i64 }* %_24, i32 0, i32 0, !dbg !1027
  %94 = load i64, i64* %93, align 8, !dbg !1027, !range !852
  %95 = getelementptr inbounds { i64, i64 }, { i64, i64 }* %_24, i32 0, i32 1, !dbg !1027
  %96 = load i64, i64* %95, align 8, !dbg !1027
  %97 = getelementptr inbounds { i64, i64 }, { i64, i64 }* %92, i32 0, i32 0, !dbg !1027
  store i64 %94, i64* %97, align 8, !dbg !1027
  %98 = getelementptr inbounds { i64, i64 }, { i64, i64 }* %92, i32 0, i32 1, !dbg !1027
  store i64 %96, i64* %98, align 8, !dbg !1027
  %99 = getelementptr inbounds %"std::thread::JoinInner<()>", %"std::thread::JoinInner<()>"* %_23, i32 0, i32 1, !dbg !1027
  store i64* %_38, i64** %99, align 8, !dbg !1027
  %100 = getelementptr inbounds %"std::thread::JoinInner<()>", %"std::thread::JoinInner<()>"* %_23, i32 0, i32 2, !dbg !1027
  %101 = load i64*, i64** %_39, align 8, !dbg !1027, !nonnull !4
  store i64* %101, i64** %100, align 8, !dbg !1027
  %102 = bitcast %"std::thread::JoinHandle<()>"* %_22 to %"std::thread::JoinInner<()>"*, !dbg !1028
  %103 = bitcast %"std::thread::JoinInner<()>"* %102 to i8*, !dbg !1028
  %104 = bitcast %"std::thread::JoinInner<()>"* %_23 to i8*, !dbg !1028
  call void @llvm.memcpy.p0i8.p0i8.i64(i8* align 8 %103, i8* align 8 %104, i64 32, i1 false), !dbg !1028
  %105 = bitcast %"std::result::Result<std::thread::JoinHandle<()>, std::io::Error>"* %0 to %"std::result::Result<std::thread::JoinHandle<()>, std::io::Error>::Ok"*, !dbg !1029
  %106 = getelementptr inbounds %"std::result::Result<std::thread::JoinHandle<()>, std::io::Error>::Ok", %"std::result::Result<std::thread::JoinHandle<()>, std::io::Error>::Ok"* %105, i32 0, i32 1, !dbg !1029
  %107 = bitcast %"std::thread::JoinHandle<()>"* %106 to i8*, !dbg !1029
  %108 = bitcast %"std::thread::JoinHandle<()>"* %_22 to i8*, !dbg !1029
  call void @llvm.memcpy.p0i8.p0i8.i64(i8* align 8 %107, i8* align 8 %108, i64 32, i1 false), !dbg !1029
  %109 = bitcast %"std::result::Result<std::thread::JoinHandle<()>, std::io::Error>"* %0 to i64*, !dbg !1029
  store i64 0, i64* %109, align 8, !dbg !1029
  store i8 0, i8* %_41, align 1, !dbg !999
  store i8 0, i8* %_42, align 1, !dbg !997
  store i8 0, i8* %_43, align 1, !dbg !989
  store i8 0, i8* %_44, align 1, !dbg !972
  br label %bb21, !dbg !972

bb17:                                             ; preds = %bb14
  %110 = bitcast %"std::ops::ControlFlow<std::result::Result<std::convert::Infallible, std::io::Error>, std::sys::unix::thread::Thread>"* %_26 to %"std::ops::ControlFlow<std::result::Result<std::convert::Infallible, std::io::Error>, std::sys::unix::thread::Thread>::Break"*, !dbg !1030
  %111 = getelementptr inbounds %"std::ops::ControlFlow<std::result::Result<std::convert::Infallible, std::io::Error>, std::sys::unix::thread::Thread>::Break", %"std::ops::ControlFlow<std::result::Result<std::convert::Infallible, std::io::Error>, std::sys::unix::thread::Thread>::Break"* %110, i32 0, i32 1, !dbg !1030
  %112 = bitcast %"std::result::Result<std::convert::Infallible, std::io::Error>::Err"* %residual to i8*, !dbg !1030
  %113 = bitcast %"std::result::Result<std::convert::Infallible, std::io::Error>::Err"* %111 to i8*, !dbg !1030
  call void @llvm.memcpy.p0i8.p0i8.i64(i8* align 8 %112, i8* align 8 %113, i64 16, i1 false), !dbg !1030
  %114 = bitcast %"std::result::Result<std::convert::Infallible, std::io::Error>::Err"* %_36 to i8*, !dbg !964
  %115 = bitcast %"std::result::Result<std::convert::Infallible, std::io::Error>::Err"* %residual to i8*, !dbg !964
  call void @llvm.memcpy.p0i8.p0i8.i64(i8* align 8 %114, i8* align 8 %115, i64 16, i1 false), !dbg !964
  %116 = bitcast %"std::result::Result<std::convert::Infallible, std::io::Error>::Err"* %_36 to i128*, !dbg !1031
  %117 = load i128, i128* %116, align 8, !dbg !1031
; invoke <core::result::Result<T,F> as core::ops::try_trait::FromResidual<core::result::Result<core::convert::Infallible,E>>>::from_residual
  invoke void @"_ZN153_$LT$core..result..Result$LT$T$C$F$GT$$u20$as$u20$core..ops..try_trait..FromResidual$LT$core..result..Result$LT$core..convert..Infallible$C$E$GT$$GT$$GT$13from_residual17h79cfa5838ac5099dE"(%"std::result::Result<std::thread::JoinHandle<()>, std::io::Error>"* noalias nocapture sret(%"std::result::Result<std::thread::JoinHandle<()>, std::io::Error>") dereferenceable(40) %0, i128 %117)
          to label %bb18 unwind label %cleanup7, !dbg !1031

bb18:                                             ; preds = %bb17
  store i8 0, i8* %_41, align 1, !dbg !999
  store i8 0, i8* %_42, align 1, !dbg !997
; invoke core::ptr::drop_in_place<alloc::sync::Arc<core::cell::UnsafeCell<core::option::Option<core::result::Result<(),alloc::boxed::Box<dyn core::any::Any+core::marker::Send>>>>>>
  invoke void @"_ZN4core3ptr212drop_in_place$LT$alloc..sync..Arc$LT$core..cell..UnsafeCell$LT$core..option..Option$LT$core..result..Result$LT$$LP$$RP$$C$alloc..boxed..Box$LT$dyn$u20$core..any..Any$u2b$core..marker..Send$GT$$GT$$GT$$GT$$GT$$GT$17hd930061a4e94938bE"(i64** %my_packet)
          to label %bb19 unwind label %cleanup8, !dbg !994

bb22:                                             ; preds = %cleanup7
; call core::ptr::drop_in_place<alloc::sync::Arc<core::cell::UnsafeCell<core::option::Option<core::result::Result<(),alloc::boxed::Box<dyn core::any::Any+core::marker::Send>>>>>>
  call void @"_ZN4core3ptr212drop_in_place$LT$alloc..sync..Arc$LT$core..cell..UnsafeCell$LT$core..option..Option$LT$core..result..Result$LT$$LP$$RP$$C$alloc..boxed..Box$LT$dyn$u20$core..any..Any$u2b$core..marker..Send$GT$$GT$$GT$$GT$$GT$$GT$17hd930061a4e94938bE"(i64** %my_packet) #14, !dbg !994
  br label %bb23, !dbg !994

cleanup7:                                         ; preds = %bb17
  %118 = landingpad { i8*, i32 }
          cleanup
  %119 = extractvalue { i8*, i32 } %118, 0
  %120 = extractvalue { i8*, i32 } %118, 1
  %121 = getelementptr inbounds { i8*, i32 }, { i8*, i32 }* %2, i32 0, i32 0
  store i8* %119, i8** %121, align 8
  %122 = getelementptr inbounds { i8*, i32 }, { i8*, i32 }* %2, i32 0, i32 1
  store i32 %120, i32* %122, align 8
  br label %bb22

bb23:                                             ; preds = %cleanup8, %bb22
; call core::ptr::drop_in_place<std::thread::Thread>
  call void @"_ZN4core3ptr40drop_in_place$LT$std..thread..Thread$GT$17h2abb1c9a01ac885cE"(i64** %my_thread) #14, !dbg !987
  br label %bb28, !dbg !987

bb19:                                             ; preds = %bb18
  store i8 0, i8* %_43, align 1, !dbg !989
; invoke core::ptr::drop_in_place<std::thread::Thread>
  invoke void @"_ZN4core3ptr40drop_in_place$LT$std..thread..Thread$GT$17h2abb1c9a01ac885cE"(i64** %my_thread)
          to label %bb20 unwind label %cleanup9, !dbg !987

cleanup8:                                         ; preds = %bb18
  %123 = landingpad { i8*, i32 }
          cleanup
  %124 = extractvalue { i8*, i32 } %123, 0
  %125 = extractvalue { i8*, i32 } %123, 1
  %126 = getelementptr inbounds { i8*, i32 }, { i8*, i32 }* %2, i32 0, i32 0
  store i8* %124, i8** %126, align 8
  %127 = getelementptr inbounds { i8*, i32 }, { i8*, i32 }* %2, i32 0, i32 1
  store i32 %125, i32* %127, align 8
  br label %bb23

bb28:                                             ; preds = %cleanup9, %bb23
  br label %bb26, !dbg !972

bb20:                                             ; preds = %bb19
  store i8 0, i8* %_44, align 1, !dbg !972
  br label %bb21, !dbg !972

cleanup9:                                         ; preds = %bb19
  %128 = landingpad { i8*, i32 }
          cleanup
  %129 = extractvalue { i8*, i32 } %128, 0
  %130 = extractvalue { i8*, i32 } %128, 1
  %131 = getelementptr inbounds { i8*, i32 }, { i8*, i32 }* %2, i32 0, i32 0
  store i8* %129, i8** %131, align 8
  %132 = getelementptr inbounds { i8*, i32 }, { i8*, i32 }* %2, i32 0, i32 1
  store i32 %130, i32* %132, align 8
  br label %bb28

bb27:                                             ; preds = %bb37, %bb26
  %133 = bitcast { i8*, i32 }* %2 to i8**, !dbg !1032
  %134 = load i8*, i8** %133, align 8, !dbg !1032
  %135 = getelementptr inbounds { i8*, i32 }, { i8*, i32 }* %2, i32 0, i32 1, !dbg !1032
  %136 = load i32, i32* %135, align 8, !dbg !1032
  %137 = insertvalue { i8*, i32 } undef, i8* %134, 0, !dbg !1032
  %138 = insertvalue { i8*, i32 } %137, i32 %136, 1, !dbg !1032
  resume { i8*, i32 } %138, !dbg !1032

bb37:                                             ; preds = %bb26
  br label %bb27, !dbg !972

bb21:                                             ; preds = %bb15, %bb20
  ret void, !dbg !1033
}

; std::thread::Builder::spawn_unchecked::{{closure}}
; Function Attrs: inlinehint uwtable
define internal void @"_ZN3std6thread7Builder15spawn_unchecked28_$u7b$$u7b$closure$u7d$$u7d$17h44f3ee49670a04c8E"(%"[closure@std::thread::Builder::spawn_unchecked<[closure@three_threads.rs:12:16: 15:3], ()>::{closure#0}]"* noalias nocapture dereferenceable(24) %_1) unnamed_addr #1 personality i32 (i32, i32, i64, %"unwind::libunwind::_Unwind_Exception"*, %"unwind::libunwind::_Unwind_Context"*)* @rust_eh_personality !dbg !1034 {
start:
  %self.dbg.spill.i = alloca %"std::cell::UnsafeCell<std::option::Option<std::result::Result<(), std::boxed::Box<dyn std::any::Any + std::marker::Send>>>>"*, align 8
  %try_result.dbg.spill = alloca { i8*, i8* }, align 8
  %name.dbg.spill = alloca { %"std::ffi::CStr"*, i64 }, align 8
  %0 = alloca { i8*, i32 }, align 8
  %_25 = alloca i8, align 1
  %_24 = alloca i8, align 1
  %_23 = alloca i8, align 1
  %_22 = alloca i8, align 1
  %_16 = alloca %"std::option::Option<std::result::Result<(), std::boxed::Box<dyn std::any::Any + std::marker::Send>>>", align 8
  %_15 = alloca %"[closure@std::thread::Builder::spawn_unchecked<[closure@three_threads.rs:12:16: 15:3], ()>::{closure#0}::{closure#0}]", align 1
  %_14 = alloca %"std::panic::AssertUnwindSafe<[closure@std::thread::Builder::spawn_unchecked<[closure@three_threads.rs:12:16: 15:3], ()>::{closure#0}::{closure#0}]>", align 1
  %_11 = alloca %"std::option::Option<std::ops::Range<usize>>", align 8
  %_8 = alloca i64*, align 8
  %_2 = alloca { i8*, i64 }, align 8
  %1 = bitcast %"[closure@std::thread::Builder::spawn_unchecked<[closure@three_threads.rs:12:16: 15:3], ()>::{closure#0}]"* %_1 to i64**
  call void @llvm.dbg.declare(metadata %"[closure@std::thread::Builder::spawn_unchecked<[closure@three_threads.rs:12:16: 15:3], ()>::{closure#0}]"* %_1, metadata !1038, metadata !DIExpression()), !dbg !1052
  %2 = getelementptr inbounds %"[closure@std::thread::Builder::spawn_unchecked<[closure@three_threads.rs:12:16: 15:3], ()>::{closure#0}]", %"[closure@std::thread::Builder::spawn_unchecked<[closure@three_threads.rs:12:16: 15:3], ()>::{closure#0}]"* %_1, i32 0, i32 2
  call void @llvm.dbg.declare(metadata %"[closure@std::thread::Builder::spawn_unchecked<[closure@three_threads.rs:12:16: 15:3], ()>::{closure#0}]"* %_1, metadata !1039, metadata !DIExpression(DW_OP_plus_uconst, 8)), !dbg !1053
  %3 = bitcast %"[closure@std::thread::Builder::spawn_unchecked<[closure@three_threads.rs:12:16: 15:3], ()>::{closure#0}]"* %_1 to %"[closure@three_threads.rs:12:16: 15:3]"*
  call void @llvm.dbg.declare(metadata %"[closure@std::thread::Builder::spawn_unchecked<[closure@three_threads.rs:12:16: 15:3], ()>::{closure#0}]"* %_1, metadata !1040, metadata !DIExpression()), !dbg !1054
  %4 = getelementptr inbounds %"[closure@std::thread::Builder::spawn_unchecked<[closure@three_threads.rs:12:16: 15:3], ()>::{closure#0}]", %"[closure@std::thread::Builder::spawn_unchecked<[closure@three_threads.rs:12:16: 15:3], ()>::{closure#0}]"* %_1, i32 0, i32 3
  call void @llvm.dbg.declare(metadata %"[closure@std::thread::Builder::spawn_unchecked<[closure@three_threads.rs:12:16: 15:3], ()>::{closure#0}]"* %_1, metadata !1041, metadata !DIExpression(DW_OP_plus_uconst, 16)), !dbg !1055
  store i8 0, i8* %_25, align 1, !dbg !1056
  store i8 0, i8* %_22, align 1, !dbg !1056
  store i8 0, i8* %_23, align 1, !dbg !1056
  store i8 0, i8* %_24, align 1, !dbg !1056
  store i8 1, i8* %_23, align 1, !dbg !1056
  store i8 1, i8* %_24, align 1, !dbg !1056
  store i8 1, i8* %_25, align 1, !dbg !1056
  %_3 = bitcast %"[closure@std::thread::Builder::spawn_unchecked<[closure@three_threads.rs:12:16: 15:3], ()>::{closure#0}]"* %_1 to i64**, !dbg !1057
; invoke std::thread::Thread::cname
  %5 = invoke { i8*, i64 } @_ZN3std6thread6Thread5cname17he89a6fd803843acdE(i64** align 8 dereferenceable(8) %_3)
          to label %bb1 unwind label %cleanup, !dbg !1057

bb1:                                              ; preds = %start
  store { i8*, i64 } %5, { i8*, i64 }* %_2, align 8, !dbg !1057
  %6 = bitcast { i8*, i64 }* %_2 to {}**, !dbg !1058
  %7 = load {}*, {}** %6, align 8, !dbg !1058
  %8 = icmp eq {}* %7, null, !dbg !1058
  %_4 = select i1 %8, i64 0, i64 1, !dbg !1058
  %9 = icmp eq i64 %_4, 1, !dbg !1058
  br i1 %9, label %bb2, label %bb4, !dbg !1058

bb24:                                             ; preds = %bb16, %bb17, %cleanup
  %10 = load i8, i8* %_24, align 1, !dbg !1059, !range !769
  %11 = trunc i8 %10 to i1, !dbg !1059
  br i1 %11, label %bb23, label %bb21, !dbg !1059

cleanup:                                          ; preds = %bb8, %bb7, %bb6, %bb5, %bb4, %bb2, %start
  %12 = landingpad { i8*, i32 }
          cleanup
  %13 = extractvalue { i8*, i32 } %12, 0
  %14 = extractvalue { i8*, i32 } %12, 1
  %15 = getelementptr inbounds { i8*, i32 }, { i8*, i32 }* %0, i32 0, i32 0
  store i8* %13, i8** %15, align 8
  %16 = getelementptr inbounds { i8*, i32 }, { i8*, i32 }* %0, i32 0, i32 1
  store i32 %14, i32* %16, align 8
  br label %bb24

bb2:                                              ; preds = %bb1
  %17 = bitcast { i8*, i64 }* %_2 to { %"std::ffi::CStr"*, i64 }*, !dbg !1060
  %18 = getelementptr inbounds { %"std::ffi::CStr"*, i64 }, { %"std::ffi::CStr"*, i64 }* %17, i32 0, i32 0, !dbg !1060
  %name.0 = load %"std::ffi::CStr"*, %"std::ffi::CStr"** %18, align 8, !dbg !1060, !nonnull !4
  %19 = getelementptr inbounds { %"std::ffi::CStr"*, i64 }, { %"std::ffi::CStr"*, i64 }* %17, i32 0, i32 1, !dbg !1060
  %name.1 = load i64, i64* %19, align 8, !dbg !1060
  %20 = getelementptr inbounds { %"std::ffi::CStr"*, i64 }, { %"std::ffi::CStr"*, i64 }* %name.dbg.spill, i32 0, i32 0, !dbg !1060
  store %"std::ffi::CStr"* %name.0, %"std::ffi::CStr"** %20, align 8, !dbg !1060
  %21 = getelementptr inbounds { %"std::ffi::CStr"*, i64 }, { %"std::ffi::CStr"*, i64 }* %name.dbg.spill, i32 0, i32 1, !dbg !1060
  store i64 %name.1, i64* %21, align 8, !dbg !1060
  call void @llvm.dbg.declare(metadata { %"std::ffi::CStr"*, i64 }* %name.dbg.spill, metadata !1042, metadata !DIExpression()), !dbg !1061
; invoke std::sys::unix::thread::Thread::set_name
  invoke void @_ZN3std3sys4unix6thread6Thread8set_name17h213191957fe60ebbE(%"std::ffi::CStr"* nonnull align 1 %name.0, i64 %name.1)
          to label %bb3 unwind label %cleanup, !dbg !1062

bb4:                                              ; preds = %bb3, %bb1
  store i8 0, i8* %_25, align 1, !dbg !1063
  %22 = getelementptr inbounds %"[closure@std::thread::Builder::spawn_unchecked<[closure@three_threads.rs:12:16: 15:3], ()>::{closure#0}]", %"[closure@std::thread::Builder::spawn_unchecked<[closure@three_threads.rs:12:16: 15:3], ()>::{closure#0}]"* %_1, i32 0, i32 2, !dbg !1063
  %_9 = load i64*, i64** %22, align 8, !dbg !1063
; invoke std::io::stdio::set_output_capture
  %23 = invoke i64* @_ZN3std2io5stdio18set_output_capture17h5b0d0cafcb5e3848E(i64* %_9)
          to label %bb5 unwind label %cleanup, !dbg !1064

bb3:                                              ; preds = %bb2
  br label %bb4, !dbg !1056

bb5:                                              ; preds = %bb4
  store i64* %23, i64** %_8, align 8, !dbg !1064
; invoke core::ptr::drop_in_place<core::option::Option<alloc::sync::Arc<std::sync::mutex::Mutex<alloc::vec::Vec<u8>>>>>
  invoke void @"_ZN4core3ptr129drop_in_place$LT$core..option..Option$LT$alloc..sync..Arc$LT$std..sync..mutex..Mutex$LT$alloc..vec..Vec$LT$u8$GT$$GT$$GT$$GT$$GT$17h77905d1796e37b8aE"(i64** %_8)
          to label %bb6 unwind label %cleanup, !dbg !1065

bb6:                                              ; preds = %bb5
; invoke std::sys::unix::thread::guard::current
  invoke void @_ZN3std3sys4unix6thread5guard7current17h038b28d3aa0a22f4E(%"std::option::Option<std::ops::Range<usize>>"* noalias nocapture sret(%"std::option::Option<std::ops::Range<usize>>") dereferenceable(24) %_11)
          to label %bb7 unwind label %cleanup, !dbg !1066

bb7:                                              ; preds = %bb6
  store i8 0, i8* %_24, align 1, !dbg !1067
  %24 = bitcast %"[closure@std::thread::Builder::spawn_unchecked<[closure@three_threads.rs:12:16: 15:3], ()>::{closure#0}]"* %_1 to i64**, !dbg !1067
  %_12 = load i64*, i64** %24, align 8, !dbg !1067, !nonnull !4
; invoke std::sys_common::thread_info::set
  invoke void @_ZN3std10sys_common11thread_info3set17hb0a492d3e558509cE(%"std::option::Option<std::ops::Range<usize>>"* noalias nocapture dereferenceable(24) %_11, i64* nonnull %_12)
          to label %bb8 unwind label %cleanup, !dbg !1068

bb8:                                              ; preds = %bb7
  store i8 0, i8* %_23, align 1, !dbg !1069
  %25 = bitcast %"[closure@std::thread::Builder::spawn_unchecked<[closure@three_threads.rs:12:16: 15:3], ()>::{closure#0}::{closure#0}]"* %_15 to %"[closure@three_threads.rs:12:16: 15:3]"*, !dbg !1069
  %26 = bitcast %"std::panic::AssertUnwindSafe<[closure@std::thread::Builder::spawn_unchecked<[closure@three_threads.rs:12:16: 15:3], ()>::{closure#0}::{closure#0}]>"* %_14 to %"[closure@std::thread::Builder::spawn_unchecked<[closure@three_threads.rs:12:16: 15:3], ()>::{closure#0}::{closure#0}]"*, !dbg !1070
; invoke std::panic::catch_unwind
  %27 = invoke { i8*, i8* } @_ZN3std5panic12catch_unwind17h6f37227ba48740b7E()
          to label %bb9 unwind label %cleanup, !dbg !1071

bb9:                                              ; preds = %bb8
  %try_result.0 = extractvalue { i8*, i8* } %27, 0, !dbg !1071
  %try_result.1 = extractvalue { i8*, i8* } %27, 1, !dbg !1071
  %28 = getelementptr inbounds { i8*, i8* }, { i8*, i8* }* %try_result.dbg.spill, i32 0, i32 0, !dbg !1071
  store i8* %try_result.0, i8** %28, align 8, !dbg !1071
  %29 = getelementptr inbounds { i8*, i8* }, { i8*, i8* }* %try_result.dbg.spill, i32 0, i32 1, !dbg !1071
  store i8* %try_result.1, i8** %29, align 8, !dbg !1071
  call void @llvm.dbg.declare(metadata { i8*, i8* }* %try_result.dbg.spill, metadata !1050, metadata !DIExpression()), !dbg !1072
  store i8 1, i8* %_22, align 1, !dbg !1073
  %30 = bitcast %"std::option::Option<std::result::Result<(), std::boxed::Box<dyn std::any::Any + std::marker::Send>>>"* %_16 to %"std::option::Option<std::result::Result<(), std::boxed::Box<dyn std::any::Any + std::marker::Send>>>::Some"*, !dbg !1073
  %31 = getelementptr inbounds %"std::option::Option<std::result::Result<(), std::boxed::Box<dyn std::any::Any + std::marker::Send>>>::Some", %"std::option::Option<std::result::Result<(), std::boxed::Box<dyn std::any::Any + std::marker::Send>>>::Some"* %30, i32 0, i32 1, !dbg !1073
  %32 = getelementptr inbounds { i8*, i8* }, { i8*, i8* }* %31, i32 0, i32 0, !dbg !1073
  store i8* %try_result.0, i8** %32, align 8, !dbg !1073
  %33 = getelementptr inbounds { i8*, i8* }, { i8*, i8* }* %31, i32 0, i32 1, !dbg !1073
  store i8* %try_result.1, i8** %33, align 8, !dbg !1073
  %34 = bitcast %"std::option::Option<std::result::Result<(), std::boxed::Box<dyn std::any::Any + std::marker::Send>>>"* %_16 to i64*, !dbg !1073
  store i64 1, i64* %34, align 8, !dbg !1073
  %_21 = getelementptr inbounds %"[closure@std::thread::Builder::spawn_unchecked<[closure@three_threads.rs:12:16: 15:3], ()>::{closure#0}]", %"[closure@std::thread::Builder::spawn_unchecked<[closure@three_threads.rs:12:16: 15:3], ()>::{closure#0}]"* %_1, i32 0, i32 3, !dbg !1074
; invoke <alloc::sync::Arc<T> as core::ops::deref::Deref>::deref
  %_20 = invoke align 8 dereferenceable(24) %"std::cell::UnsafeCell<std::option::Option<std::result::Result<(), std::boxed::Box<dyn std::any::Any + std::marker::Send>>>>"* @"_ZN69_$LT$alloc..sync..Arc$LT$T$GT$$u20$as$u20$core..ops..deref..Deref$GT$5deref17hf19cc715d96c8f8cE"(i64** align 8 dereferenceable(8) %_21)
          to label %bb10 unwind label %cleanup1, !dbg !1074

bb10:                                             ; preds = %bb9
  store %"std::cell::UnsafeCell<std::option::Option<std::result::Result<(), std::boxed::Box<dyn std::any::Any + std::marker::Send>>>>"* %_20, %"std::cell::UnsafeCell<std::option::Option<std::result::Result<(), std::boxed::Box<dyn std::any::Any + std::marker::Send>>>>"** %self.dbg.spill.i, align 8
  call void @llvm.dbg.declare(metadata %"std::cell::UnsafeCell<std::option::Option<std::result::Result<(), std::boxed::Box<dyn std::any::Any + std::marker::Send>>>>"** %self.dbg.spill.i, metadata !1075, metadata !DIExpression()), !dbg !1082
  %_2.i = bitcast %"std::cell::UnsafeCell<std::option::Option<std::result::Result<(), std::boxed::Box<dyn std::any::Any + std::marker::Send>>>>"* %_20 to %"std::option::Option<std::result::Result<(), std::boxed::Box<dyn std::any::Any + std::marker::Send>>>"*, !dbg !1084
  br label %bb11, !dbg !1085

bb17:                                             ; preds = %bb13, %cleanup1
  %35 = load i8, i8* %_22, align 1, !dbg !1086, !range !769
  %36 = trunc i8 %35 to i1, !dbg !1086
  br i1 %36, label %bb16, label %bb24, !dbg !1086

cleanup1:                                         ; preds = %bb9
  %37 = landingpad { i8*, i32 }
          cleanup
  %38 = extractvalue { i8*, i32 } %37, 0
  %39 = extractvalue { i8*, i32 } %37, 1
  %40 = getelementptr inbounds { i8*, i32 }, { i8*, i32 }* %0, i32 0, i32 0
  store i8* %38, i8** %40, align 8
  %41 = getelementptr inbounds { i8*, i32 }, { i8*, i32 }* %0, i32 0, i32 1
  store i32 %39, i32* %41, align 8
  br label %bb17

bb11:                                             ; preds = %bb10
  store i8 0, i8* %_22, align 1, !dbg !1087
; invoke core::ptr::drop_in_place<core::option::Option<core::result::Result<(),alloc::boxed::Box<dyn core::any::Any+core::marker::Send>>>>
  invoke void @"_ZN4core3ptr158drop_in_place$LT$core..option..Option$LT$core..result..Result$LT$$LP$$RP$$C$alloc..boxed..Box$LT$dyn$u20$core..any..Any$u2b$core..marker..Send$GT$$GT$$GT$$GT$17ha563eff3ef2195ccE"(%"std::option::Option<std::result::Result<(), std::boxed::Box<dyn std::any::Any + std::marker::Send>>>"* %_2.i)
          to label %bb14 unwind label %cleanup2, !dbg !1087

bb14:                                             ; preds = %bb11
  %42 = bitcast %"std::option::Option<std::result::Result<(), std::boxed::Box<dyn std::any::Any + std::marker::Send>>>"* %_2.i to i8*, !dbg !1087
  %43 = bitcast %"std::option::Option<std::result::Result<(), std::boxed::Box<dyn std::any::Any + std::marker::Send>>>"* %_16 to i8*, !dbg !1087
  call void @llvm.memcpy.p0i8.p0i8.i64(i8* align 8 %42, i8* align 8 %43, i64 24, i1 false), !dbg !1087
  store i8 0, i8* %_22, align 1, !dbg !1086
  %44 = getelementptr inbounds %"[closure@std::thread::Builder::spawn_unchecked<[closure@three_threads.rs:12:16: 15:3], ()>::{closure#0}]", %"[closure@std::thread::Builder::spawn_unchecked<[closure@three_threads.rs:12:16: 15:3], ()>::{closure#0}]"* %_1, i32 0, i32 3, !dbg !1059
; call core::ptr::drop_in_place<alloc::sync::Arc<core::cell::UnsafeCell<core::option::Option<core::result::Result<(),alloc::boxed::Box<dyn core::any::Any+core::marker::Send>>>>>>
  call void @"_ZN4core3ptr212drop_in_place$LT$alloc..sync..Arc$LT$core..cell..UnsafeCell$LT$core..option..Option$LT$core..result..Result$LT$$LP$$RP$$C$alloc..boxed..Box$LT$dyn$u20$core..any..Any$u2b$core..marker..Send$GT$$GT$$GT$$GT$$GT$$GT$17hd930061a4e94938bE"(i64** %44), !dbg !1059
  br label %bb15, !dbg !1059

bb13:                                             ; preds = %cleanup2
  %45 = bitcast %"std::option::Option<std::result::Result<(), std::boxed::Box<dyn std::any::Any + std::marker::Send>>>"* %_2.i to i8*, !dbg !1087
  %46 = bitcast %"std::option::Option<std::result::Result<(), std::boxed::Box<dyn std::any::Any + std::marker::Send>>>"* %_16 to i8*, !dbg !1087
  call void @llvm.memcpy.p0i8.p0i8.i64(i8* align 8 %45, i8* align 8 %46, i64 24, i1 false), !dbg !1087
  br label %bb17, !dbg !1087

cleanup2:                                         ; preds = %bb11
  %47 = landingpad { i8*, i32 }
          cleanup
  %48 = extractvalue { i8*, i32 } %47, 0
  %49 = extractvalue { i8*, i32 } %47, 1
  %50 = getelementptr inbounds { i8*, i32 }, { i8*, i32 }* %0, i32 0, i32 0
  store i8* %48, i8** %50, align 8
  %51 = getelementptr inbounds { i8*, i32 }, { i8*, i32 }* %0, i32 0, i32 1
  store i32 %49, i32* %51, align 8
  br label %bb13

bb16:                                             ; preds = %bb17
; call core::ptr::drop_in_place<core::option::Option<core::result::Result<(),alloc::boxed::Box<dyn core::any::Any+core::marker::Send>>>>
  call void @"_ZN4core3ptr158drop_in_place$LT$core..option..Option$LT$core..result..Result$LT$$LP$$RP$$C$alloc..boxed..Box$LT$dyn$u20$core..any..Any$u2b$core..marker..Send$GT$$GT$$GT$$GT$17ha563eff3ef2195ccE"(%"std::option::Option<std::result::Result<(), std::boxed::Box<dyn std::any::Any + std::marker::Send>>>"* %_16) #14, !dbg !1086
  br label %bb24, !dbg !1086

bb21:                                             ; preds = %bb23, %bb24
  %52 = load i8, i8* %_25, align 1, !dbg !1059, !range !769
  %53 = trunc i8 %52 to i1, !dbg !1059
  br i1 %53, label %bb22, label %bb19, !dbg !1059

bb23:                                             ; preds = %bb24
  %54 = bitcast %"[closure@std::thread::Builder::spawn_unchecked<[closure@three_threads.rs:12:16: 15:3], ()>::{closure#0}]"* %_1 to i64**, !dbg !1059
; call core::ptr::drop_in_place<std::thread::Thread>
  call void @"_ZN4core3ptr40drop_in_place$LT$std..thread..Thread$GT$17h2abb1c9a01ac885cE"(i64** %54) #14, !dbg !1059
  br label %bb21, !dbg !1059

bb19:                                             ; preds = %bb22, %bb21
  %55 = load i8, i8* %_23, align 1, !dbg !1059, !range !769
  %56 = trunc i8 %55 to i1, !dbg !1059
  br i1 %56, label %bb20, label %bb18, !dbg !1059

bb22:                                             ; preds = %bb21
  %57 = getelementptr inbounds %"[closure@std::thread::Builder::spawn_unchecked<[closure@three_threads.rs:12:16: 15:3], ()>::{closure#0}]", %"[closure@std::thread::Builder::spawn_unchecked<[closure@three_threads.rs:12:16: 15:3], ()>::{closure#0}]"* %_1, i32 0, i32 2, !dbg !1059
; call core::ptr::drop_in_place<core::option::Option<alloc::sync::Arc<std::sync::mutex::Mutex<alloc::vec::Vec<u8>>>>>
  call void @"_ZN4core3ptr129drop_in_place$LT$core..option..Option$LT$alloc..sync..Arc$LT$std..sync..mutex..Mutex$LT$alloc..vec..Vec$LT$u8$GT$$GT$$GT$$GT$$GT$17h77905d1796e37b8aE"(i64** %57) #14, !dbg !1059
  br label %bb19, !dbg !1059

bb18:                                             ; preds = %bb20, %bb19
  %58 = getelementptr inbounds %"[closure@std::thread::Builder::spawn_unchecked<[closure@three_threads.rs:12:16: 15:3], ()>::{closure#0}]", %"[closure@std::thread::Builder::spawn_unchecked<[closure@three_threads.rs:12:16: 15:3], ()>::{closure#0}]"* %_1, i32 0, i32 3, !dbg !1059
; call core::ptr::drop_in_place<alloc::sync::Arc<core::cell::UnsafeCell<core::option::Option<core::result::Result<(),alloc::boxed::Box<dyn core::any::Any+core::marker::Send>>>>>>
  call void @"_ZN4core3ptr212drop_in_place$LT$alloc..sync..Arc$LT$core..cell..UnsafeCell$LT$core..option..Option$LT$core..result..Result$LT$$LP$$RP$$C$alloc..boxed..Box$LT$dyn$u20$core..any..Any$u2b$core..marker..Send$GT$$GT$$GT$$GT$$GT$$GT$17hd930061a4e94938bE"(i64** %58) #14, !dbg !1059
  br label %bb12, !dbg !1059

bb20:                                             ; preds = %bb19
  br label %bb18, !dbg !1059

bb12:                                             ; preds = %bb18
  %59 = bitcast { i8*, i32 }* %0 to i8**, !dbg !1088
  %60 = load i8*, i8** %59, align 8, !dbg !1088
  %61 = getelementptr inbounds { i8*, i32 }, { i8*, i32 }* %0, i32 0, i32 1, !dbg !1088
  %62 = load i32, i32* %61, align 8, !dbg !1088
  %63 = insertvalue { i8*, i32 } undef, i8* %60, 0, !dbg !1088
  %64 = insertvalue { i8*, i32 } %63, i32 %62, 1, !dbg !1088
  resume { i8*, i32 } %64, !dbg !1088

bb15:                                             ; preds = %bb14
  ret void, !dbg !1089
}

; std::thread::Builder::spawn_unchecked::{{closure}}
; Function Attrs: inlinehint uwtable
define internal void @"_ZN3std6thread7Builder15spawn_unchecked28_$u7b$$u7b$closure$u7d$$u7d$17hb00d5eebb3cb9ef3E"(%"[closure@std::thread::Builder::spawn_unchecked<[closure@three_threads.rs:7:16: 10:3], ()>::{closure#0}]"* noalias nocapture dereferenceable(24) %_1) unnamed_addr #1 personality i32 (i32, i32, i64, %"unwind::libunwind::_Unwind_Exception"*, %"unwind::libunwind::_Unwind_Context"*)* @rust_eh_personality !dbg !1090 {
start:
  %self.dbg.spill.i = alloca %"std::cell::UnsafeCell<std::option::Option<std::result::Result<(), std::boxed::Box<dyn std::any::Any + std::marker::Send>>>>"*, align 8
  %try_result.dbg.spill = alloca { i8*, i8* }, align 8
  %name.dbg.spill = alloca { %"std::ffi::CStr"*, i64 }, align 8
  %0 = alloca { i8*, i32 }, align 8
  %_25 = alloca i8, align 1
  %_24 = alloca i8, align 1
  %_23 = alloca i8, align 1
  %_22 = alloca i8, align 1
  %_16 = alloca %"std::option::Option<std::result::Result<(), std::boxed::Box<dyn std::any::Any + std::marker::Send>>>", align 8
  %_15 = alloca %"[closure@std::thread::Builder::spawn_unchecked<[closure@three_threads.rs:7:16: 10:3], ()>::{closure#0}::{closure#0}]", align 1
  %_14 = alloca %"std::panic::AssertUnwindSafe<[closure@std::thread::Builder::spawn_unchecked<[closure@three_threads.rs:7:16: 10:3], ()>::{closure#0}::{closure#0}]>", align 1
  %_11 = alloca %"std::option::Option<std::ops::Range<usize>>", align 8
  %_8 = alloca i64*, align 8
  %_2 = alloca { i8*, i64 }, align 8
  %1 = bitcast %"[closure@std::thread::Builder::spawn_unchecked<[closure@three_threads.rs:7:16: 10:3], ()>::{closure#0}]"* %_1 to i64**
  call void @llvm.dbg.declare(metadata %"[closure@std::thread::Builder::spawn_unchecked<[closure@three_threads.rs:7:16: 10:3], ()>::{closure#0}]"* %_1, metadata !1094, metadata !DIExpression()), !dbg !1102
  %2 = getelementptr inbounds %"[closure@std::thread::Builder::spawn_unchecked<[closure@three_threads.rs:7:16: 10:3], ()>::{closure#0}]", %"[closure@std::thread::Builder::spawn_unchecked<[closure@three_threads.rs:7:16: 10:3], ()>::{closure#0}]"* %_1, i32 0, i32 2
  call void @llvm.dbg.declare(metadata %"[closure@std::thread::Builder::spawn_unchecked<[closure@three_threads.rs:7:16: 10:3], ()>::{closure#0}]"* %_1, metadata !1095, metadata !DIExpression(DW_OP_plus_uconst, 8)), !dbg !1103
  %3 = bitcast %"[closure@std::thread::Builder::spawn_unchecked<[closure@three_threads.rs:7:16: 10:3], ()>::{closure#0}]"* %_1 to %"[closure@three_threads.rs:7:16: 10:3]"*
  call void @llvm.dbg.declare(metadata %"[closure@std::thread::Builder::spawn_unchecked<[closure@three_threads.rs:7:16: 10:3], ()>::{closure#0}]"* %_1, metadata !1096, metadata !DIExpression()), !dbg !1104
  %4 = getelementptr inbounds %"[closure@std::thread::Builder::spawn_unchecked<[closure@three_threads.rs:7:16: 10:3], ()>::{closure#0}]", %"[closure@std::thread::Builder::spawn_unchecked<[closure@three_threads.rs:7:16: 10:3], ()>::{closure#0}]"* %_1, i32 0, i32 3
  call void @llvm.dbg.declare(metadata %"[closure@std::thread::Builder::spawn_unchecked<[closure@three_threads.rs:7:16: 10:3], ()>::{closure#0}]"* %_1, metadata !1097, metadata !DIExpression(DW_OP_plus_uconst, 16)), !dbg !1105
  store i8 0, i8* %_25, align 1, !dbg !1106
  store i8 0, i8* %_22, align 1, !dbg !1106
  store i8 0, i8* %_23, align 1, !dbg !1106
  store i8 0, i8* %_24, align 1, !dbg !1106
  store i8 1, i8* %_23, align 1, !dbg !1106
  store i8 1, i8* %_24, align 1, !dbg !1106
  store i8 1, i8* %_25, align 1, !dbg !1106
  %_3 = bitcast %"[closure@std::thread::Builder::spawn_unchecked<[closure@three_threads.rs:7:16: 10:3], ()>::{closure#0}]"* %_1 to i64**, !dbg !1107
; invoke std::thread::Thread::cname
  %5 = invoke { i8*, i64 } @_ZN3std6thread6Thread5cname17he89a6fd803843acdE(i64** align 8 dereferenceable(8) %_3)
          to label %bb1 unwind label %cleanup, !dbg !1107

bb1:                                              ; preds = %start
  store { i8*, i64 } %5, { i8*, i64 }* %_2, align 8, !dbg !1107
  %6 = bitcast { i8*, i64 }* %_2 to {}**, !dbg !1108
  %7 = load {}*, {}** %6, align 8, !dbg !1108
  %8 = icmp eq {}* %7, null, !dbg !1108
  %_4 = select i1 %8, i64 0, i64 1, !dbg !1108
  %9 = icmp eq i64 %_4, 1, !dbg !1108
  br i1 %9, label %bb2, label %bb4, !dbg !1108

bb24:                                             ; preds = %bb16, %bb17, %cleanup
  %10 = load i8, i8* %_24, align 1, !dbg !1109, !range !769
  %11 = trunc i8 %10 to i1, !dbg !1109
  br i1 %11, label %bb23, label %bb21, !dbg !1109

cleanup:                                          ; preds = %bb8, %bb7, %bb6, %bb5, %bb4, %bb2, %start
  %12 = landingpad { i8*, i32 }
          cleanup
  %13 = extractvalue { i8*, i32 } %12, 0
  %14 = extractvalue { i8*, i32 } %12, 1
  %15 = getelementptr inbounds { i8*, i32 }, { i8*, i32 }* %0, i32 0, i32 0
  store i8* %13, i8** %15, align 8
  %16 = getelementptr inbounds { i8*, i32 }, { i8*, i32 }* %0, i32 0, i32 1
  store i32 %14, i32* %16, align 8
  br label %bb24

bb2:                                              ; preds = %bb1
  %17 = bitcast { i8*, i64 }* %_2 to { %"std::ffi::CStr"*, i64 }*, !dbg !1110
  %18 = getelementptr inbounds { %"std::ffi::CStr"*, i64 }, { %"std::ffi::CStr"*, i64 }* %17, i32 0, i32 0, !dbg !1110
  %name.0 = load %"std::ffi::CStr"*, %"std::ffi::CStr"** %18, align 8, !dbg !1110, !nonnull !4
  %19 = getelementptr inbounds { %"std::ffi::CStr"*, i64 }, { %"std::ffi::CStr"*, i64 }* %17, i32 0, i32 1, !dbg !1110
  %name.1 = load i64, i64* %19, align 8, !dbg !1110
  %20 = getelementptr inbounds { %"std::ffi::CStr"*, i64 }, { %"std::ffi::CStr"*, i64 }* %name.dbg.spill, i32 0, i32 0, !dbg !1110
  store %"std::ffi::CStr"* %name.0, %"std::ffi::CStr"** %20, align 8, !dbg !1110
  %21 = getelementptr inbounds { %"std::ffi::CStr"*, i64 }, { %"std::ffi::CStr"*, i64 }* %name.dbg.spill, i32 0, i32 1, !dbg !1110
  store i64 %name.1, i64* %21, align 8, !dbg !1110
  call void @llvm.dbg.declare(metadata { %"std::ffi::CStr"*, i64 }* %name.dbg.spill, metadata !1098, metadata !DIExpression()), !dbg !1111
; invoke std::sys::unix::thread::Thread::set_name
  invoke void @_ZN3std3sys4unix6thread6Thread8set_name17h213191957fe60ebbE(%"std::ffi::CStr"* nonnull align 1 %name.0, i64 %name.1)
          to label %bb3 unwind label %cleanup, !dbg !1112

bb4:                                              ; preds = %bb3, %bb1
  store i8 0, i8* %_25, align 1, !dbg !1113
  %22 = getelementptr inbounds %"[closure@std::thread::Builder::spawn_unchecked<[closure@three_threads.rs:7:16: 10:3], ()>::{closure#0}]", %"[closure@std::thread::Builder::spawn_unchecked<[closure@three_threads.rs:7:16: 10:3], ()>::{closure#0}]"* %_1, i32 0, i32 2, !dbg !1113
  %_9 = load i64*, i64** %22, align 8, !dbg !1113
; invoke std::io::stdio::set_output_capture
  %23 = invoke i64* @_ZN3std2io5stdio18set_output_capture17h5b0d0cafcb5e3848E(i64* %_9)
          to label %bb5 unwind label %cleanup, !dbg !1114

bb3:                                              ; preds = %bb2
  br label %bb4, !dbg !1106

bb5:                                              ; preds = %bb4
  store i64* %23, i64** %_8, align 8, !dbg !1114
; invoke core::ptr::drop_in_place<core::option::Option<alloc::sync::Arc<std::sync::mutex::Mutex<alloc::vec::Vec<u8>>>>>
  invoke void @"_ZN4core3ptr129drop_in_place$LT$core..option..Option$LT$alloc..sync..Arc$LT$std..sync..mutex..Mutex$LT$alloc..vec..Vec$LT$u8$GT$$GT$$GT$$GT$$GT$17h77905d1796e37b8aE"(i64** %_8)
          to label %bb6 unwind label %cleanup, !dbg !1115

bb6:                                              ; preds = %bb5
; invoke std::sys::unix::thread::guard::current
  invoke void @_ZN3std3sys4unix6thread5guard7current17h038b28d3aa0a22f4E(%"std::option::Option<std::ops::Range<usize>>"* noalias nocapture sret(%"std::option::Option<std::ops::Range<usize>>") dereferenceable(24) %_11)
          to label %bb7 unwind label %cleanup, !dbg !1116

bb7:                                              ; preds = %bb6
  store i8 0, i8* %_24, align 1, !dbg !1117
  %24 = bitcast %"[closure@std::thread::Builder::spawn_unchecked<[closure@three_threads.rs:7:16: 10:3], ()>::{closure#0}]"* %_1 to i64**, !dbg !1117
  %_12 = load i64*, i64** %24, align 8, !dbg !1117, !nonnull !4
; invoke std::sys_common::thread_info::set
  invoke void @_ZN3std10sys_common11thread_info3set17hb0a492d3e558509cE(%"std::option::Option<std::ops::Range<usize>>"* noalias nocapture dereferenceable(24) %_11, i64* nonnull %_12)
          to label %bb8 unwind label %cleanup, !dbg !1118

bb8:                                              ; preds = %bb7
  store i8 0, i8* %_23, align 1, !dbg !1119
  %25 = bitcast %"[closure@std::thread::Builder::spawn_unchecked<[closure@three_threads.rs:7:16: 10:3], ()>::{closure#0}::{closure#0}]"* %_15 to %"[closure@three_threads.rs:7:16: 10:3]"*, !dbg !1119
  %26 = bitcast %"std::panic::AssertUnwindSafe<[closure@std::thread::Builder::spawn_unchecked<[closure@three_threads.rs:7:16: 10:3], ()>::{closure#0}::{closure#0}]>"* %_14 to %"[closure@std::thread::Builder::spawn_unchecked<[closure@three_threads.rs:7:16: 10:3], ()>::{closure#0}::{closure#0}]"*, !dbg !1120
; invoke std::panic::catch_unwind
  %27 = invoke { i8*, i8* } @_ZN3std5panic12catch_unwind17h9a71ebc326675fdeE()
          to label %bb9 unwind label %cleanup, !dbg !1121

bb9:                                              ; preds = %bb8
  %try_result.0 = extractvalue { i8*, i8* } %27, 0, !dbg !1121
  %try_result.1 = extractvalue { i8*, i8* } %27, 1, !dbg !1121
  %28 = getelementptr inbounds { i8*, i8* }, { i8*, i8* }* %try_result.dbg.spill, i32 0, i32 0, !dbg !1121
  store i8* %try_result.0, i8** %28, align 8, !dbg !1121
  %29 = getelementptr inbounds { i8*, i8* }, { i8*, i8* }* %try_result.dbg.spill, i32 0, i32 1, !dbg !1121
  store i8* %try_result.1, i8** %29, align 8, !dbg !1121
  call void @llvm.dbg.declare(metadata { i8*, i8* }* %try_result.dbg.spill, metadata !1100, metadata !DIExpression()), !dbg !1122
  store i8 1, i8* %_22, align 1, !dbg !1123
  %30 = bitcast %"std::option::Option<std::result::Result<(), std::boxed::Box<dyn std::any::Any + std::marker::Send>>>"* %_16 to %"std::option::Option<std::result::Result<(), std::boxed::Box<dyn std::any::Any + std::marker::Send>>>::Some"*, !dbg !1123
  %31 = getelementptr inbounds %"std::option::Option<std::result::Result<(), std::boxed::Box<dyn std::any::Any + std::marker::Send>>>::Some", %"std::option::Option<std::result::Result<(), std::boxed::Box<dyn std::any::Any + std::marker::Send>>>::Some"* %30, i32 0, i32 1, !dbg !1123
  %32 = getelementptr inbounds { i8*, i8* }, { i8*, i8* }* %31, i32 0, i32 0, !dbg !1123
  store i8* %try_result.0, i8** %32, align 8, !dbg !1123
  %33 = getelementptr inbounds { i8*, i8* }, { i8*, i8* }* %31, i32 0, i32 1, !dbg !1123
  store i8* %try_result.1, i8** %33, align 8, !dbg !1123
  %34 = bitcast %"std::option::Option<std::result::Result<(), std::boxed::Box<dyn std::any::Any + std::marker::Send>>>"* %_16 to i64*, !dbg !1123
  store i64 1, i64* %34, align 8, !dbg !1123
  %_21 = getelementptr inbounds %"[closure@std::thread::Builder::spawn_unchecked<[closure@three_threads.rs:7:16: 10:3], ()>::{closure#0}]", %"[closure@std::thread::Builder::spawn_unchecked<[closure@three_threads.rs:7:16: 10:3], ()>::{closure#0}]"* %_1, i32 0, i32 3, !dbg !1124
; invoke <alloc::sync::Arc<T> as core::ops::deref::Deref>::deref
  %_20 = invoke align 8 dereferenceable(24) %"std::cell::UnsafeCell<std::option::Option<std::result::Result<(), std::boxed::Box<dyn std::any::Any + std::marker::Send>>>>"* @"_ZN69_$LT$alloc..sync..Arc$LT$T$GT$$u20$as$u20$core..ops..deref..Deref$GT$5deref17hf19cc715d96c8f8cE"(i64** align 8 dereferenceable(8) %_21)
          to label %bb10 unwind label %cleanup1, !dbg !1124

bb10:                                             ; preds = %bb9
  store %"std::cell::UnsafeCell<std::option::Option<std::result::Result<(), std::boxed::Box<dyn std::any::Any + std::marker::Send>>>>"* %_20, %"std::cell::UnsafeCell<std::option::Option<std::result::Result<(), std::boxed::Box<dyn std::any::Any + std::marker::Send>>>>"** %self.dbg.spill.i, align 8
  call void @llvm.dbg.declare(metadata %"std::cell::UnsafeCell<std::option::Option<std::result::Result<(), std::boxed::Box<dyn std::any::Any + std::marker::Send>>>>"** %self.dbg.spill.i, metadata !1075, metadata !DIExpression()), !dbg !1125
  %_2.i = bitcast %"std::cell::UnsafeCell<std::option::Option<std::result::Result<(), std::boxed::Box<dyn std::any::Any + std::marker::Send>>>>"* %_20 to %"std::option::Option<std::result::Result<(), std::boxed::Box<dyn std::any::Any + std::marker::Send>>>"*, !dbg !1127
  br label %bb11, !dbg !1128

bb17:                                             ; preds = %bb13, %cleanup1
  %35 = load i8, i8* %_22, align 1, !dbg !1129, !range !769
  %36 = trunc i8 %35 to i1, !dbg !1129
  br i1 %36, label %bb16, label %bb24, !dbg !1129

cleanup1:                                         ; preds = %bb9
  %37 = landingpad { i8*, i32 }
          cleanup
  %38 = extractvalue { i8*, i32 } %37, 0
  %39 = extractvalue { i8*, i32 } %37, 1
  %40 = getelementptr inbounds { i8*, i32 }, { i8*, i32 }* %0, i32 0, i32 0
  store i8* %38, i8** %40, align 8
  %41 = getelementptr inbounds { i8*, i32 }, { i8*, i32 }* %0, i32 0, i32 1
  store i32 %39, i32* %41, align 8
  br label %bb17

bb11:                                             ; preds = %bb10
  store i8 0, i8* %_22, align 1, !dbg !1130
; invoke core::ptr::drop_in_place<core::option::Option<core::result::Result<(),alloc::boxed::Box<dyn core::any::Any+core::marker::Send>>>>
  invoke void @"_ZN4core3ptr158drop_in_place$LT$core..option..Option$LT$core..result..Result$LT$$LP$$RP$$C$alloc..boxed..Box$LT$dyn$u20$core..any..Any$u2b$core..marker..Send$GT$$GT$$GT$$GT$17ha563eff3ef2195ccE"(%"std::option::Option<std::result::Result<(), std::boxed::Box<dyn std::any::Any + std::marker::Send>>>"* %_2.i)
          to label %bb14 unwind label %cleanup2, !dbg !1130

bb14:                                             ; preds = %bb11
  %42 = bitcast %"std::option::Option<std::result::Result<(), std::boxed::Box<dyn std::any::Any + std::marker::Send>>>"* %_2.i to i8*, !dbg !1130
  %43 = bitcast %"std::option::Option<std::result::Result<(), std::boxed::Box<dyn std::any::Any + std::marker::Send>>>"* %_16 to i8*, !dbg !1130
  call void @llvm.memcpy.p0i8.p0i8.i64(i8* align 8 %42, i8* align 8 %43, i64 24, i1 false), !dbg !1130
  store i8 0, i8* %_22, align 1, !dbg !1129
  %44 = getelementptr inbounds %"[closure@std::thread::Builder::spawn_unchecked<[closure@three_threads.rs:7:16: 10:3], ()>::{closure#0}]", %"[closure@std::thread::Builder::spawn_unchecked<[closure@three_threads.rs:7:16: 10:3], ()>::{closure#0}]"* %_1, i32 0, i32 3, !dbg !1109
; call core::ptr::drop_in_place<alloc::sync::Arc<core::cell::UnsafeCell<core::option::Option<core::result::Result<(),alloc::boxed::Box<dyn core::any::Any+core::marker::Send>>>>>>
  call void @"_ZN4core3ptr212drop_in_place$LT$alloc..sync..Arc$LT$core..cell..UnsafeCell$LT$core..option..Option$LT$core..result..Result$LT$$LP$$RP$$C$alloc..boxed..Box$LT$dyn$u20$core..any..Any$u2b$core..marker..Send$GT$$GT$$GT$$GT$$GT$$GT$17hd930061a4e94938bE"(i64** %44), !dbg !1109
  br label %bb15, !dbg !1109

bb13:                                             ; preds = %cleanup2
  %45 = bitcast %"std::option::Option<std::result::Result<(), std::boxed::Box<dyn std::any::Any + std::marker::Send>>>"* %_2.i to i8*, !dbg !1130
  %46 = bitcast %"std::option::Option<std::result::Result<(), std::boxed::Box<dyn std::any::Any + std::marker::Send>>>"* %_16 to i8*, !dbg !1130
  call void @llvm.memcpy.p0i8.p0i8.i64(i8* align 8 %45, i8* align 8 %46, i64 24, i1 false), !dbg !1130
  br label %bb17, !dbg !1130

cleanup2:                                         ; preds = %bb11
  %47 = landingpad { i8*, i32 }
          cleanup
  %48 = extractvalue { i8*, i32 } %47, 0
  %49 = extractvalue { i8*, i32 } %47, 1
  %50 = getelementptr inbounds { i8*, i32 }, { i8*, i32 }* %0, i32 0, i32 0
  store i8* %48, i8** %50, align 8
  %51 = getelementptr inbounds { i8*, i32 }, { i8*, i32 }* %0, i32 0, i32 1
  store i32 %49, i32* %51, align 8
  br label %bb13

bb16:                                             ; preds = %bb17
; call core::ptr::drop_in_place<core::option::Option<core::result::Result<(),alloc::boxed::Box<dyn core::any::Any+core::marker::Send>>>>
  call void @"_ZN4core3ptr158drop_in_place$LT$core..option..Option$LT$core..result..Result$LT$$LP$$RP$$C$alloc..boxed..Box$LT$dyn$u20$core..any..Any$u2b$core..marker..Send$GT$$GT$$GT$$GT$17ha563eff3ef2195ccE"(%"std::option::Option<std::result::Result<(), std::boxed::Box<dyn std::any::Any + std::marker::Send>>>"* %_16) #14, !dbg !1129
  br label %bb24, !dbg !1129

bb21:                                             ; preds = %bb23, %bb24
  %52 = load i8, i8* %_25, align 1, !dbg !1109, !range !769
  %53 = trunc i8 %52 to i1, !dbg !1109
  br i1 %53, label %bb22, label %bb19, !dbg !1109

bb23:                                             ; preds = %bb24
  %54 = bitcast %"[closure@std::thread::Builder::spawn_unchecked<[closure@three_threads.rs:7:16: 10:3], ()>::{closure#0}]"* %_1 to i64**, !dbg !1109
; call core::ptr::drop_in_place<std::thread::Thread>
  call void @"_ZN4core3ptr40drop_in_place$LT$std..thread..Thread$GT$17h2abb1c9a01ac885cE"(i64** %54) #14, !dbg !1109
  br label %bb21, !dbg !1109

bb19:                                             ; preds = %bb22, %bb21
  %55 = load i8, i8* %_23, align 1, !dbg !1109, !range !769
  %56 = trunc i8 %55 to i1, !dbg !1109
  br i1 %56, label %bb20, label %bb18, !dbg !1109

bb22:                                             ; preds = %bb21
  %57 = getelementptr inbounds %"[closure@std::thread::Builder::spawn_unchecked<[closure@three_threads.rs:7:16: 10:3], ()>::{closure#0}]", %"[closure@std::thread::Builder::spawn_unchecked<[closure@three_threads.rs:7:16: 10:3], ()>::{closure#0}]"* %_1, i32 0, i32 2, !dbg !1109
; call core::ptr::drop_in_place<core::option::Option<alloc::sync::Arc<std::sync::mutex::Mutex<alloc::vec::Vec<u8>>>>>
  call void @"_ZN4core3ptr129drop_in_place$LT$core..option..Option$LT$alloc..sync..Arc$LT$std..sync..mutex..Mutex$LT$alloc..vec..Vec$LT$u8$GT$$GT$$GT$$GT$$GT$17h77905d1796e37b8aE"(i64** %57) #14, !dbg !1109
  br label %bb19, !dbg !1109

bb18:                                             ; preds = %bb20, %bb19
  %58 = getelementptr inbounds %"[closure@std::thread::Builder::spawn_unchecked<[closure@three_threads.rs:7:16: 10:3], ()>::{closure#0}]", %"[closure@std::thread::Builder::spawn_unchecked<[closure@three_threads.rs:7:16: 10:3], ()>::{closure#0}]"* %_1, i32 0, i32 3, !dbg !1109
; call core::ptr::drop_in_place<alloc::sync::Arc<core::cell::UnsafeCell<core::option::Option<core::result::Result<(),alloc::boxed::Box<dyn core::any::Any+core::marker::Send>>>>>>
  call void @"_ZN4core3ptr212drop_in_place$LT$alloc..sync..Arc$LT$core..cell..UnsafeCell$LT$core..option..Option$LT$core..result..Result$LT$$LP$$RP$$C$alloc..boxed..Box$LT$dyn$u20$core..any..Any$u2b$core..marker..Send$GT$$GT$$GT$$GT$$GT$$GT$17hd930061a4e94938bE"(i64** %58) #14, !dbg !1109
  br label %bb12, !dbg !1109

bb20:                                             ; preds = %bb19
  br label %bb18, !dbg !1109

bb12:                                             ; preds = %bb18
  %59 = bitcast { i8*, i32 }* %0 to i8**, !dbg !1131
  %60 = load i8*, i8** %59, align 8, !dbg !1131
  %61 = getelementptr inbounds { i8*, i32 }, { i8*, i32 }* %0, i32 0, i32 1, !dbg !1131
  %62 = load i32, i32* %61, align 8, !dbg !1131
  %63 = insertvalue { i8*, i32 } undef, i8* %60, 0, !dbg !1131
  %64 = insertvalue { i8*, i32 } %63, i32 %62, 1, !dbg !1131
  resume { i8*, i32 } %64, !dbg !1131

bb15:                                             ; preds = %bb14
  ret void, !dbg !1132
}

; std::thread::Builder::spawn_unchecked::{{closure}}::{{closure}}
; Function Attrs: inlinehint uwtable
define internal void @"_ZN3std6thread7Builder15spawn_unchecked28_$u7b$$u7b$closure$u7d$$u7d$28_$u7b$$u7b$closure$u7d$$u7d$17hb77f6abbfd0a1882E"() unnamed_addr #1 !dbg !1133 {
start:
  %_1.dbg.spill = alloca %"[closure@std::thread::Builder::spawn_unchecked<[closure@three_threads.rs:12:16: 15:3], ()>::{closure#0}::{closure#0}]", align 1
  %0 = bitcast %"[closure@std::thread::Builder::spawn_unchecked<[closure@three_threads.rs:12:16: 15:3], ()>::{closure#0}::{closure#0}]"* %_1.dbg.spill to %"[closure@three_threads.rs:12:16: 15:3]"*
  call void @llvm.dbg.declare(metadata %"[closure@std::thread::Builder::spawn_unchecked<[closure@three_threads.rs:12:16: 15:3], ()>::{closure#0}::{closure#0}]"* %_1.dbg.spill, metadata !1137, metadata !DIExpression()), !dbg !1138
; call std::sys_common::backtrace::__rust_begin_short_backtrace
  call void @_ZN3std10sys_common9backtrace28__rust_begin_short_backtrace17h40099bdb253263bbE(), !dbg !1139
  br label %bb1, !dbg !1139

bb1:                                              ; preds = %start
  ret void, !dbg !1140
}

; std::thread::Builder::spawn_unchecked::{{closure}}::{{closure}}
; Function Attrs: inlinehint uwtable
define internal void @"_ZN3std6thread7Builder15spawn_unchecked28_$u7b$$u7b$closure$u7d$$u7d$28_$u7b$$u7b$closure$u7d$$u7d$17hce5895da35075801E"() unnamed_addr #1 !dbg !1141 {
start:
  %_1.dbg.spill = alloca %"[closure@std::thread::Builder::spawn_unchecked<[closure@three_threads.rs:7:16: 10:3], ()>::{closure#0}::{closure#0}]", align 1
  %0 = bitcast %"[closure@std::thread::Builder::spawn_unchecked<[closure@three_threads.rs:7:16: 10:3], ()>::{closure#0}::{closure#0}]"* %_1.dbg.spill to %"[closure@three_threads.rs:7:16: 10:3]"*
  call void @llvm.dbg.declare(metadata %"[closure@std::thread::Builder::spawn_unchecked<[closure@three_threads.rs:7:16: 10:3], ()>::{closure#0}::{closure#0}]"* %_1.dbg.spill, metadata !1145, metadata !DIExpression()), !dbg !1146
; call std::sys_common::backtrace::__rust_begin_short_backtrace
  call void @_ZN3std10sys_common9backtrace28__rust_begin_short_backtrace17h0e3fd76cbd3f4db0E(), !dbg !1147
  br label %bb1, !dbg !1147

bb1:                                              ; preds = %start
  ret void, !dbg !1148
}

; std::thread::Builder::spawn
; Function Attrs: uwtable
define internal void @_ZN3std6thread7Builder5spawn17h43dc4c8f99323d72E(%"std::result::Result<std::thread::JoinHandle<()>, std::io::Error>"* noalias nocapture sret(%"std::result::Result<std::thread::JoinHandle<()>, std::io::Error>") dereferenceable(40) %0, %"std::thread::Builder"* noalias nocapture dereferenceable(40) %self) unnamed_addr #0 !dbg !1149 {
start:
  %f.dbg.spill = alloca %"[closure@three_threads.rs:12:16: 15:3]", align 1
  %_3 = alloca %"std::thread::Builder", align 8
  call void @llvm.dbg.declare(metadata %"std::thread::Builder"* %self, metadata !1151, metadata !DIExpression()), !dbg !1153
  call void @llvm.dbg.declare(metadata %"[closure@three_threads.rs:12:16: 15:3]"* %f.dbg.spill, metadata !1152, metadata !DIExpression()), !dbg !1154
  %1 = bitcast %"std::thread::Builder"* %_3 to i8*, !dbg !1155
  %2 = bitcast %"std::thread::Builder"* %self to i8*, !dbg !1155
  call void @llvm.memcpy.p0i8.p0i8.i64(i8* align 8 %1, i8* align 8 %2, i64 40, i1 false), !dbg !1155
; call std::thread::Builder::spawn_unchecked
  call void @_ZN3std6thread7Builder15spawn_unchecked17hbd4e96ca9c512bc6E(%"std::result::Result<std::thread::JoinHandle<()>, std::io::Error>"* noalias nocapture sret(%"std::result::Result<std::thread::JoinHandle<()>, std::io::Error>") dereferenceable(40) %0, %"std::thread::Builder"* noalias nocapture dereferenceable(40) %_3), !dbg !1155
  br label %bb1, !dbg !1155

bb1:                                              ; preds = %start
  ret void, !dbg !1156
}

; std::thread::Builder::spawn
; Function Attrs: uwtable
define internal void @_ZN3std6thread7Builder5spawn17h6e3bc14199c795b0E(%"std::result::Result<std::thread::JoinHandle<()>, std::io::Error>"* noalias nocapture sret(%"std::result::Result<std::thread::JoinHandle<()>, std::io::Error>") dereferenceable(40) %0, %"std::thread::Builder"* noalias nocapture dereferenceable(40) %self) unnamed_addr #0 !dbg !1157 {
start:
  %f.dbg.spill = alloca %"[closure@three_threads.rs:7:16: 10:3]", align 1
  %_3 = alloca %"std::thread::Builder", align 8
  call void @llvm.dbg.declare(metadata %"std::thread::Builder"* %self, metadata !1159, metadata !DIExpression()), !dbg !1161
  call void @llvm.dbg.declare(metadata %"[closure@three_threads.rs:7:16: 10:3]"* %f.dbg.spill, metadata !1160, metadata !DIExpression()), !dbg !1162
  %1 = bitcast %"std::thread::Builder"* %_3 to i8*, !dbg !1163
  %2 = bitcast %"std::thread::Builder"* %self to i8*, !dbg !1163
  call void @llvm.memcpy.p0i8.p0i8.i64(i8* align 8 %1, i8* align 8 %2, i64 40, i1 false), !dbg !1163
; call std::thread::Builder::spawn_unchecked
  call void @_ZN3std6thread7Builder15spawn_unchecked17h3b232b2f89a625a6E(%"std::result::Result<std::thread::JoinHandle<()>, std::io::Error>"* noalias nocapture sret(%"std::result::Result<std::thread::JoinHandle<()>, std::io::Error>") dereferenceable(40) %0, %"std::thread::Builder"* noalias nocapture dereferenceable(40) %_3), !dbg !1163
  br label %bb1, !dbg !1163

bb1:                                              ; preds = %start
  ret void, !dbg !1164
}

; std::panicking::try
; Function Attrs: uwtable
define internal { i8*, i8* } @_ZN3std9panicking3try17h45033883cf78185cE() unnamed_addr #0 !dbg !1165 {
start:
  %slot.dbg.spill.i = alloca { i8*, i64* }, align 8
  %0 = alloca %"std::mem::ManuallyDrop<std::panic::AssertUnwindSafe<[closure@std::thread::Builder::spawn_unchecked<[closure@three_threads.rs:12:16: 15:3], ()>::{closure#0}::{closure#0}]>>", align 1
  %1 = alloca i32, align 4
  %data_ptr.dbg.spill = alloca i8*, align 8
  %f.dbg.spill = alloca %"std::panic::AssertUnwindSafe<[closure@std::thread::Builder::spawn_unchecked<[closure@three_threads.rs:12:16: 15:3], ()>::{closure#0}::{closure#0}]>", align 1
  %data = alloca { i8*, i8* }, align 8
  %2 = alloca { i8*, i8* }, align 8
  call void @llvm.dbg.declare(metadata %"std::panic::AssertUnwindSafe<[closure@std::thread::Builder::spawn_unchecked<[closure@three_threads.rs:12:16: 15:3], ()>::{closure#0}::{closure#0}]>"* %f.dbg.spill, metadata !1169, metadata !DIExpression()), !dbg !1196
  call void @llvm.dbg.declare(metadata { i8*, i8* }* %data, metadata !1170, metadata !DIExpression()), !dbg !1197
  call void @llvm.dbg.declare(metadata %"std::panic::AssertUnwindSafe<[closure@std::thread::Builder::spawn_unchecked<[closure@three_threads.rs:12:16: 15:3], ()>::{closure#0}::{closure#0}]>"* undef, metadata !1198, metadata !DIExpression()), !dbg !1202
  %3 = bitcast %"std::mem::ManuallyDrop<std::panic::AssertUnwindSafe<[closure@std::thread::Builder::spawn_unchecked<[closure@three_threads.rs:12:16: 15:3], ()>::{closure#0}::{closure#0}]>>"* %0 to %"std::panic::AssertUnwindSafe<[closure@std::thread::Builder::spawn_unchecked<[closure@three_threads.rs:12:16: 15:3], ()>::{closure#0}::{closure#0}]>"*, !dbg !1204
  br label %bb1, !dbg !1205

bb1:                                              ; preds = %start
  %4 = bitcast { i8*, i8* }* %data to %"std::mem::ManuallyDrop<std::panic::AssertUnwindSafe<[closure@std::thread::Builder::spawn_unchecked<[closure@three_threads.rs:12:16: 15:3], ()>::{closure#0}::{closure#0}]>>"*, !dbg !1206
  %data_ptr = bitcast { i8*, i8* }* %data to i8*, !dbg !1207
  store i8* %data_ptr, i8** %data_ptr.dbg.spill, align 8, !dbg !1207
  call void @llvm.dbg.declare(metadata i8** %data_ptr.dbg.spill, metadata !1193, metadata !DIExpression()), !dbg !1208
  %5 = call i32 @__rust_try(void (i8*)* @_ZN3std9panicking3try7do_call17h878cf793e631040cE, i8* %data_ptr, void (i8*, i8*)* @_ZN3std9panicking3try8do_catch17heb0df7f89e92122dE), !dbg !1209
  store i32 %5, i32* %1, align 4, !dbg !1209
  %_9 = load i32, i32* %1, align 4, !dbg !1209
  br label %bb2, !dbg !1209

bb2:                                              ; preds = %bb1
  %6 = icmp eq i32 %_9, 0, !dbg !1209
  br i1 %6, label %bb3, label %bb5, !dbg !1209

bb3:                                              ; preds = %bb2
  call void @llvm.dbg.declare(metadata %"std::mem::ManuallyDrop<()>"* undef, metadata !1210, metadata !DIExpression()), !dbg !1215
  br label %bb4, !dbg !1217

bb5:                                              ; preds = %bb2
  %7 = bitcast { i8*, i8* }* %data to { i8*, i64* }*, !dbg !1218
  %8 = getelementptr inbounds { i8*, i64* }, { i8*, i64* }* %7, i32 0, i32 0, !dbg !1218
  %_17.0 = load i8*, i8** %8, align 8, !dbg !1218, !nonnull !4
  %9 = getelementptr inbounds { i8*, i64* }, { i8*, i64* }* %7, i32 0, i32 1, !dbg !1218
  %_17.1 = load i64*, i64** %9, align 8, !dbg !1218, !nonnull !4
  call void @llvm.experimental.noalias.scope.decl(metadata !1219), !dbg !1222
  %10 = getelementptr inbounds { i8*, i64* }, { i8*, i64* }* %slot.dbg.spill.i, i32 0, i32 0
  store i8* %_17.0, i8** %10, align 8, !noalias !1219
  %11 = getelementptr inbounds { i8*, i64* }, { i8*, i64* }* %slot.dbg.spill.i, i32 0, i32 1
  store i64* %_17.1, i64** %11, align 8, !noalias !1219
  call void @llvm.dbg.declare(metadata { i8*, i64* }* %slot.dbg.spill.i, metadata !1223, metadata !DIExpression()), !dbg !1228
  %12 = bitcast i8* %_17.0 to {}*, !dbg !1230
  %13 = bitcast i64* %_17.1 to [3 x i64]*, !dbg !1230
  %14 = insertvalue { {}*, [3 x i64]* } undef, {}* %12, 0, !dbg !1231
  %15 = insertvalue { {}*, [3 x i64]* } %14, [3 x i64]* %13, 1, !dbg !1231
  %_16.0 = extractvalue { {}*, [3 x i64]* } %15, 0, !dbg !1222
  %_16.1 = extractvalue { {}*, [3 x i64]* } %15, 1, !dbg !1222
  br label %bb6, !dbg !1222

bb6:                                              ; preds = %bb5
  %16 = bitcast { i8*, i8* }* %2 to { {}*, [3 x i64]* }*, !dbg !1232
  %17 = getelementptr inbounds { {}*, [3 x i64]* }, { {}*, [3 x i64]* }* %16, i32 0, i32 0, !dbg !1232
  store {}* %_16.0, {}** %17, align 8, !dbg !1232
  %18 = getelementptr inbounds { {}*, [3 x i64]* }, { {}*, [3 x i64]* }* %16, i32 0, i32 1, !dbg !1232
  store [3 x i64]* %_16.1, [3 x i64]** %18, align 8, !dbg !1232
  br label %bb7, !dbg !1233

bb7:                                              ; preds = %bb4, %bb6
  %19 = getelementptr inbounds { i8*, i8* }, { i8*, i8* }* %2, i32 0, i32 0, !dbg !1234
  %20 = load i8*, i8** %19, align 8, !dbg !1234
  %21 = getelementptr inbounds { i8*, i8* }, { i8*, i8* }* %2, i32 0, i32 1, !dbg !1234
  %22 = load i8*, i8** %21, align 8, !dbg !1234
  %23 = insertvalue { i8*, i8* } undef, i8* %20, 0, !dbg !1234
  %24 = insertvalue { i8*, i8* } %23, i8* %22, 1, !dbg !1234
  ret { i8*, i8* } %24, !dbg !1234

bb4:                                              ; preds = %bb3
  %25 = bitcast { i8*, i8* }* %2 to %"std::result::Result<(), std::boxed::Box<dyn std::any::Any + std::marker::Send>>::Ok"*, !dbg !1235
  %26 = bitcast %"std::result::Result<(), std::boxed::Box<dyn std::any::Any + std::marker::Send>>::Ok"* %25 to {}*, !dbg !1235
  %27 = bitcast { i8*, i8* }* %2 to i8*, !dbg !1235
  call void @llvm.memset.p0i8.i64(i8* align 8 %27, i8 0, i64 16, i1 false), !dbg !1235
  %28 = bitcast { i8*, i8* }* %2 to {}**, !dbg !1235
  store {}* null, {}** %28, align 8, !dbg !1235
  br label %bb7, !dbg !1233
}

; std::panicking::try
; Function Attrs: uwtable
define internal { i8*, i8* } @_ZN3std9panicking3try17h5e0fe2fa29957622E() unnamed_addr #0 !dbg !1236 {
start:
  %slot.dbg.spill.i = alloca { i8*, i64* }, align 8
  %0 = alloca %"std::mem::ManuallyDrop<std::panic::AssertUnwindSafe<[closure@std::thread::Builder::spawn_unchecked<[closure@three_threads.rs:7:16: 10:3], ()>::{closure#0}::{closure#0}]>>", align 1
  %1 = alloca i32, align 4
  %data_ptr.dbg.spill = alloca i8*, align 8
  %f.dbg.spill = alloca %"std::panic::AssertUnwindSafe<[closure@std::thread::Builder::spawn_unchecked<[closure@three_threads.rs:7:16: 10:3], ()>::{closure#0}::{closure#0}]>", align 1
  %data = alloca { i8*, i8* }, align 8
  %2 = alloca { i8*, i8* }, align 8
  call void @llvm.dbg.declare(metadata %"std::panic::AssertUnwindSafe<[closure@std::thread::Builder::spawn_unchecked<[closure@three_threads.rs:7:16: 10:3], ()>::{closure#0}::{closure#0}]>"* %f.dbg.spill, metadata !1238, metadata !DIExpression()), !dbg !1254
  call void @llvm.dbg.declare(metadata { i8*, i8* }* %data, metadata !1239, metadata !DIExpression()), !dbg !1255
  call void @llvm.dbg.declare(metadata %"std::panic::AssertUnwindSafe<[closure@std::thread::Builder::spawn_unchecked<[closure@three_threads.rs:7:16: 10:3], ()>::{closure#0}::{closure#0}]>"* undef, metadata !1256, metadata !DIExpression()), !dbg !1259
  %3 = bitcast %"std::mem::ManuallyDrop<std::panic::AssertUnwindSafe<[closure@std::thread::Builder::spawn_unchecked<[closure@three_threads.rs:7:16: 10:3], ()>::{closure#0}::{closure#0}]>>"* %0 to %"std::panic::AssertUnwindSafe<[closure@std::thread::Builder::spawn_unchecked<[closure@three_threads.rs:7:16: 10:3], ()>::{closure#0}::{closure#0}]>"*, !dbg !1261
  br label %bb1, !dbg !1262

bb1:                                              ; preds = %start
  %4 = bitcast { i8*, i8* }* %data to %"std::mem::ManuallyDrop<std::panic::AssertUnwindSafe<[closure@std::thread::Builder::spawn_unchecked<[closure@three_threads.rs:7:16: 10:3], ()>::{closure#0}::{closure#0}]>>"*, !dbg !1263
  %data_ptr = bitcast { i8*, i8* }* %data to i8*, !dbg !1264
  store i8* %data_ptr, i8** %data_ptr.dbg.spill, align 8, !dbg !1264
  call void @llvm.dbg.declare(metadata i8** %data_ptr.dbg.spill, metadata !1251, metadata !DIExpression()), !dbg !1265
  %5 = call i32 @__rust_try(void (i8*)* @_ZN3std9panicking3try7do_call17h200211bed4709473E, i8* %data_ptr, void (i8*, i8*)* @_ZN3std9panicking3try8do_catch17h2d617a9d57a0dcb3E), !dbg !1266
  store i32 %5, i32* %1, align 4, !dbg !1266
  %_9 = load i32, i32* %1, align 4, !dbg !1266
  br label %bb2, !dbg !1266

bb2:                                              ; preds = %bb1
  %6 = icmp eq i32 %_9, 0, !dbg !1266
  br i1 %6, label %bb3, label %bb5, !dbg !1266

bb3:                                              ; preds = %bb2
  call void @llvm.dbg.declare(metadata %"std::mem::ManuallyDrop<()>"* undef, metadata !1210, metadata !DIExpression()), !dbg !1267
  br label %bb4, !dbg !1269

bb5:                                              ; preds = %bb2
  %7 = bitcast { i8*, i8* }* %data to { i8*, i64* }*, !dbg !1270
  %8 = getelementptr inbounds { i8*, i64* }, { i8*, i64* }* %7, i32 0, i32 0, !dbg !1270
  %_17.0 = load i8*, i8** %8, align 8, !dbg !1270, !nonnull !4
  %9 = getelementptr inbounds { i8*, i64* }, { i8*, i64* }* %7, i32 0, i32 1, !dbg !1270
  %_17.1 = load i64*, i64** %9, align 8, !dbg !1270, !nonnull !4
  call void @llvm.experimental.noalias.scope.decl(metadata !1271), !dbg !1274
  %10 = getelementptr inbounds { i8*, i64* }, { i8*, i64* }* %slot.dbg.spill.i, i32 0, i32 0
  store i8* %_17.0, i8** %10, align 8, !noalias !1271
  %11 = getelementptr inbounds { i8*, i64* }, { i8*, i64* }* %slot.dbg.spill.i, i32 0, i32 1
  store i64* %_17.1, i64** %11, align 8, !noalias !1271
  call void @llvm.dbg.declare(metadata { i8*, i64* }* %slot.dbg.spill.i, metadata !1223, metadata !DIExpression()), !dbg !1275
  %12 = bitcast i8* %_17.0 to {}*, !dbg !1277
  %13 = bitcast i64* %_17.1 to [3 x i64]*, !dbg !1277
  %14 = insertvalue { {}*, [3 x i64]* } undef, {}* %12, 0, !dbg !1278
  %15 = insertvalue { {}*, [3 x i64]* } %14, [3 x i64]* %13, 1, !dbg !1278
  %_16.0 = extractvalue { {}*, [3 x i64]* } %15, 0, !dbg !1274
  %_16.1 = extractvalue { {}*, [3 x i64]* } %15, 1, !dbg !1274
  br label %bb6, !dbg !1274

bb6:                                              ; preds = %bb5
  %16 = bitcast { i8*, i8* }* %2 to { {}*, [3 x i64]* }*, !dbg !1279
  %17 = getelementptr inbounds { {}*, [3 x i64]* }, { {}*, [3 x i64]* }* %16, i32 0, i32 0, !dbg !1279
  store {}* %_16.0, {}** %17, align 8, !dbg !1279
  %18 = getelementptr inbounds { {}*, [3 x i64]* }, { {}*, [3 x i64]* }* %16, i32 0, i32 1, !dbg !1279
  store [3 x i64]* %_16.1, [3 x i64]** %18, align 8, !dbg !1279
  br label %bb7, !dbg !1280

bb7:                                              ; preds = %bb4, %bb6
  %19 = getelementptr inbounds { i8*, i8* }, { i8*, i8* }* %2, i32 0, i32 0, !dbg !1281
  %20 = load i8*, i8** %19, align 8, !dbg !1281
  %21 = getelementptr inbounds { i8*, i8* }, { i8*, i8* }* %2, i32 0, i32 1, !dbg !1281
  %22 = load i8*, i8** %21, align 8, !dbg !1281
  %23 = insertvalue { i8*, i8* } undef, i8* %20, 0, !dbg !1281
  %24 = insertvalue { i8*, i8* } %23, i8* %22, 1, !dbg !1281
  ret { i8*, i8* } %24, !dbg !1281

bb4:                                              ; preds = %bb3
  %25 = bitcast { i8*, i8* }* %2 to %"std::result::Result<(), std::boxed::Box<dyn std::any::Any + std::marker::Send>>::Ok"*, !dbg !1282
  %26 = bitcast %"std::result::Result<(), std::boxed::Box<dyn std::any::Any + std::marker::Send>>::Ok"* %25 to {}*, !dbg !1282
  %27 = bitcast { i8*, i8* }* %2 to i8*, !dbg !1282
  call void @llvm.memset.p0i8.i64(i8* align 8 %27, i8 0, i64 16, i1 false), !dbg !1282
  %28 = bitcast { i8*, i8* }* %2 to {}**, !dbg !1282
  store {}* null, {}** %28, align 8, !dbg !1282
  br label %bb7, !dbg !1280
}

; std::panicking::try::do_call
; Function Attrs: inlinehint uwtable
define internal void @_ZN3std9panicking3try7do_call17h200211bed4709473E(i8* %data) unnamed_addr #1 !dbg !1283 {
start:
  %0 = alloca %"std::mem::ManuallyDrop<()>", align 1
  %data.dbg.spill3 = alloca { i8*, i8* }*, align 8
  %data.dbg.spill2 = alloca { i8*, i8* }*, align 8
  %f.dbg.spill = alloca %"std::panic::AssertUnwindSafe<[closure@std::thread::Builder::spawn_unchecked<[closure@three_threads.rs:7:16: 10:3], ()>::{closure#0}::{closure#0}]>", align 1
  %data.dbg.spill = alloca i8*, align 8
  store i8* %data, i8** %data.dbg.spill, align 8
  call void @llvm.dbg.declare(metadata i8** %data.dbg.spill, metadata !1287, metadata !DIExpression()), !dbg !1296
  call void @llvm.dbg.declare(metadata %"std::panic::AssertUnwindSafe<[closure@std::thread::Builder::spawn_unchecked<[closure@three_threads.rs:7:16: 10:3], ()>::{closure#0}::{closure#0}]>"* %f.dbg.spill, metadata !1294, metadata !DIExpression()), !dbg !1297
  %data1 = bitcast i8* %data to { i8*, i8* }*, !dbg !1298
  store { i8*, i8* }* %data1, { i8*, i8* }** %data.dbg.spill2, align 8, !dbg !1298
  call void @llvm.dbg.declare(metadata { i8*, i8* }** %data.dbg.spill2, metadata !1288, metadata !DIExpression()), !dbg !1299
  store { i8*, i8* }* %data1, { i8*, i8* }** %data.dbg.spill3, align 8, !dbg !1300
  call void @llvm.dbg.declare(metadata { i8*, i8* }** %data.dbg.spill3, metadata !1291, metadata !DIExpression()), !dbg !1301
  %_7 = bitcast { i8*, i8* }* %data1 to %"std::mem::ManuallyDrop<std::panic::AssertUnwindSafe<[closure@std::thread::Builder::spawn_unchecked<[closure@three_threads.rs:7:16: 10:3], ()>::{closure#0}::{closure#0}]>>"*, !dbg !1302
; call core::mem::manually_drop::ManuallyDrop<T>::take
  call void @"_ZN4core3mem13manually_drop21ManuallyDrop$LT$T$GT$4take17h6ef6fb087c0611c2E"(%"std::mem::ManuallyDrop<std::panic::AssertUnwindSafe<[closure@std::thread::Builder::spawn_unchecked<[closure@three_threads.rs:7:16: 10:3], ()>::{closure#0}::{closure#0}]>>"* nonnull align 1 %_7), !dbg !1303
  br label %bb1, !dbg !1303

bb1:                                              ; preds = %start
; call <core::panic::unwind_safe::AssertUnwindSafe<F> as core::ops::function::FnOnce<()>>::call_once
  call void @"_ZN115_$LT$core..panic..unwind_safe..AssertUnwindSafe$LT$F$GT$$u20$as$u20$core..ops..function..FnOnce$LT$$LP$$RP$$GT$$GT$9call_once17h6ce079c216050e91E"(), !dbg !1304
  br label %bb2, !dbg !1304

bb2:                                              ; preds = %bb1
  call void @llvm.dbg.declare(metadata {}* undef, metadata !1305, metadata !DIExpression()), !dbg !1310
  %1 = bitcast %"std::mem::ManuallyDrop<()>"* %0 to {}*, !dbg !1312
  br label %bb3, !dbg !1313

bb3:                                              ; preds = %bb2
  %2 = bitcast { i8*, i8* }* %data1 to %"std::mem::ManuallyDrop<()>"*, !dbg !1314
  ret void, !dbg !1315
}

; std::panicking::try::do_call
; Function Attrs: inlinehint uwtable
define internal void @_ZN3std9panicking3try7do_call17h878cf793e631040cE(i8* %data) unnamed_addr #1 !dbg !1316 {
start:
  %0 = alloca %"std::mem::ManuallyDrop<()>", align 1
  %data.dbg.spill3 = alloca { i8*, i8* }*, align 8
  %data.dbg.spill2 = alloca { i8*, i8* }*, align 8
  %f.dbg.spill = alloca %"std::panic::AssertUnwindSafe<[closure@std::thread::Builder::spawn_unchecked<[closure@three_threads.rs:12:16: 15:3], ()>::{closure#0}::{closure#0}]>", align 1
  %data.dbg.spill = alloca i8*, align 8
  store i8* %data, i8** %data.dbg.spill, align 8
  call void @llvm.dbg.declare(metadata i8** %data.dbg.spill, metadata !1318, metadata !DIExpression()), !dbg !1327
  call void @llvm.dbg.declare(metadata %"std::panic::AssertUnwindSafe<[closure@std::thread::Builder::spawn_unchecked<[closure@three_threads.rs:12:16: 15:3], ()>::{closure#0}::{closure#0}]>"* %f.dbg.spill, metadata !1325, metadata !DIExpression()), !dbg !1328
  %data1 = bitcast i8* %data to { i8*, i8* }*, !dbg !1329
  store { i8*, i8* }* %data1, { i8*, i8* }** %data.dbg.spill2, align 8, !dbg !1329
  call void @llvm.dbg.declare(metadata { i8*, i8* }** %data.dbg.spill2, metadata !1319, metadata !DIExpression()), !dbg !1330
  store { i8*, i8* }* %data1, { i8*, i8* }** %data.dbg.spill3, align 8, !dbg !1331
  call void @llvm.dbg.declare(metadata { i8*, i8* }** %data.dbg.spill3, metadata !1322, metadata !DIExpression()), !dbg !1332
  %_7 = bitcast { i8*, i8* }* %data1 to %"std::mem::ManuallyDrop<std::panic::AssertUnwindSafe<[closure@std::thread::Builder::spawn_unchecked<[closure@three_threads.rs:12:16: 15:3], ()>::{closure#0}::{closure#0}]>>"*, !dbg !1333
; call core::mem::manually_drop::ManuallyDrop<T>::take
  call void @"_ZN4core3mem13manually_drop21ManuallyDrop$LT$T$GT$4take17h229e373f2c1a92a1E"(%"std::mem::ManuallyDrop<std::panic::AssertUnwindSafe<[closure@std::thread::Builder::spawn_unchecked<[closure@three_threads.rs:12:16: 15:3], ()>::{closure#0}::{closure#0}]>>"* nonnull align 1 %_7), !dbg !1334
  br label %bb1, !dbg !1334

bb1:                                              ; preds = %start
; call <core::panic::unwind_safe::AssertUnwindSafe<F> as core::ops::function::FnOnce<()>>::call_once
  call void @"_ZN115_$LT$core..panic..unwind_safe..AssertUnwindSafe$LT$F$GT$$u20$as$u20$core..ops..function..FnOnce$LT$$LP$$RP$$GT$$GT$9call_once17h8330631e9de16022E"(), !dbg !1335
  br label %bb2, !dbg !1335

bb2:                                              ; preds = %bb1
  call void @llvm.dbg.declare(metadata {}* undef, metadata !1305, metadata !DIExpression()), !dbg !1336
  %1 = bitcast %"std::mem::ManuallyDrop<()>"* %0 to {}*, !dbg !1338
  br label %bb3, !dbg !1339

bb3:                                              ; preds = %bb2
  %2 = bitcast { i8*, i8* }* %data1 to %"std::mem::ManuallyDrop<()>"*, !dbg !1340
  ret void, !dbg !1341
}

; std::panicking::try::do_catch
; Function Attrs: inlinehint uwtable
define internal void @_ZN3std9panicking3try8do_catch17h2d617a9d57a0dcb3E(i8* %data, i8* %payload) unnamed_addr #1 !dbg !1342 {
start:
  %value.dbg.spill.i = alloca { {}*, [3 x i64]* }, align 8
  %0 = alloca { i8*, i64* }, align 8
  %obj.dbg.spill = alloca { {}*, [3 x i64]* }, align 8
  %data.dbg.spill3 = alloca { i8*, i8* }*, align 8
  %data.dbg.spill2 = alloca { i8*, i8* }*, align 8
  %payload.dbg.spill = alloca i8*, align 8
  %data.dbg.spill = alloca i8*, align 8
  store i8* %data, i8** %data.dbg.spill, align 8
  call void @llvm.dbg.declare(metadata i8** %data.dbg.spill, metadata !1346, metadata !DIExpression()), !dbg !1354
  store i8* %payload, i8** %payload.dbg.spill, align 8
  call void @llvm.dbg.declare(metadata i8** %payload.dbg.spill, metadata !1347, metadata !DIExpression()), !dbg !1355
  %data1 = bitcast i8* %data to { i8*, i8* }*, !dbg !1356
  store { i8*, i8* }* %data1, { i8*, i8* }** %data.dbg.spill2, align 8, !dbg !1356
  call void @llvm.dbg.declare(metadata { i8*, i8* }** %data.dbg.spill2, metadata !1348, metadata !DIExpression()), !dbg !1357
  store { i8*, i8* }* %data1, { i8*, i8* }** %data.dbg.spill3, align 8, !dbg !1358
  call void @llvm.dbg.declare(metadata { i8*, i8* }** %data.dbg.spill3, metadata !1350, metadata !DIExpression()), !dbg !1359
; call std::panicking::try::cleanup
  %1 = call { {}*, [3 x i64]* } @_ZN3std9panicking3try7cleanup17ha1de9dd6056b3de0E(i8* %payload), !dbg !1360
  %obj.0 = extractvalue { {}*, [3 x i64]* } %1, 0, !dbg !1360
  %obj.1 = extractvalue { {}*, [3 x i64]* } %1, 1, !dbg !1360
  %2 = getelementptr inbounds { {}*, [3 x i64]* }, { {}*, [3 x i64]* }* %obj.dbg.spill, i32 0, i32 0, !dbg !1360
  store {}* %obj.0, {}** %2, align 8, !dbg !1360
  %3 = getelementptr inbounds { {}*, [3 x i64]* }, { {}*, [3 x i64]* }* %obj.dbg.spill, i32 0, i32 1, !dbg !1360
  store [3 x i64]* %obj.1, [3 x i64]** %3, align 8, !dbg !1360
  call void @llvm.dbg.declare(metadata { {}*, [3 x i64]* }* %obj.dbg.spill, metadata !1352, metadata !DIExpression()), !dbg !1361
  br label %bb1, !dbg !1360

bb1:                                              ; preds = %start
  call void @llvm.experimental.noalias.scope.decl(metadata !1362), !dbg !1365
  %4 = getelementptr inbounds { {}*, [3 x i64]* }, { {}*, [3 x i64]* }* %value.dbg.spill.i, i32 0, i32 0
  store {}* %obj.0, {}** %4, align 8, !noalias !1362
  %5 = getelementptr inbounds { {}*, [3 x i64]* }, { {}*, [3 x i64]* }* %value.dbg.spill.i, i32 0, i32 1
  store [3 x i64]* %obj.1, [3 x i64]** %5, align 8, !noalias !1362
  call void @llvm.dbg.declare(metadata { {}*, [3 x i64]* }* %value.dbg.spill.i, metadata !1366, metadata !DIExpression()), !dbg !1371
  %6 = bitcast { i8*, i64* }* %0 to { {}*, [3 x i64]* }*, !dbg !1373
  %7 = getelementptr inbounds { {}*, [3 x i64]* }, { {}*, [3 x i64]* }* %6, i32 0, i32 0, !dbg !1373
  store {}* %obj.0, {}** %7, align 8, !dbg !1373, !noalias !1362
  %8 = getelementptr inbounds { {}*, [3 x i64]* }, { {}*, [3 x i64]* }* %6, i32 0, i32 1, !dbg !1373
  store [3 x i64]* %obj.1, [3 x i64]** %8, align 8, !dbg !1373, !noalias !1362
  %9 = getelementptr inbounds { i8*, i64* }, { i8*, i64* }* %0, i32 0, i32 0, !dbg !1374
  %10 = load i8*, i8** %9, align 8, !dbg !1374, !noalias !1362, !nonnull !4
  %11 = getelementptr inbounds { i8*, i64* }, { i8*, i64* }* %0, i32 0, i32 1, !dbg !1374
  %12 = load i64*, i64** %11, align 8, !dbg !1374, !noalias !1362, !nonnull !4
  %13 = insertvalue { i8*, i64* } undef, i8* %10, 0, !dbg !1374
  %14 = insertvalue { i8*, i64* } %13, i64* %12, 1, !dbg !1374
  %_8.0 = extractvalue { i8*, i64* } %14, 0, !dbg !1365
  %_8.1 = extractvalue { i8*, i64* } %14, 1, !dbg !1365
  br label %bb2, !dbg !1365

bb2:                                              ; preds = %bb1
  %15 = bitcast { i8*, i8* }* %data1 to { i8*, i64* }*, !dbg !1375
  %16 = getelementptr inbounds { i8*, i64* }, { i8*, i64* }* %15, i32 0, i32 0, !dbg !1375
  store i8* %_8.0, i8** %16, align 8, !dbg !1375
  %17 = getelementptr inbounds { i8*, i64* }, { i8*, i64* }* %15, i32 0, i32 1, !dbg !1375
  store i64* %_8.1, i64** %17, align 8, !dbg !1375
  ret void, !dbg !1376
}

; std::panicking::try::do_catch
; Function Attrs: inlinehint uwtable
define internal void @_ZN3std9panicking3try8do_catch17heb0df7f89e92122dE(i8* %data, i8* %payload) unnamed_addr #1 !dbg !1377 {
start:
  %value.dbg.spill.i = alloca { {}*, [3 x i64]* }, align 8
  %0 = alloca { i8*, i64* }, align 8
  %obj.dbg.spill = alloca { {}*, [3 x i64]* }, align 8
  %data.dbg.spill3 = alloca { i8*, i8* }*, align 8
  %data.dbg.spill2 = alloca { i8*, i8* }*, align 8
  %payload.dbg.spill = alloca i8*, align 8
  %data.dbg.spill = alloca i8*, align 8
  store i8* %data, i8** %data.dbg.spill, align 8
  call void @llvm.dbg.declare(metadata i8** %data.dbg.spill, metadata !1379, metadata !DIExpression()), !dbg !1387
  store i8* %payload, i8** %payload.dbg.spill, align 8
  call void @llvm.dbg.declare(metadata i8** %payload.dbg.spill, metadata !1380, metadata !DIExpression()), !dbg !1388
  %data1 = bitcast i8* %data to { i8*, i8* }*, !dbg !1389
  store { i8*, i8* }* %data1, { i8*, i8* }** %data.dbg.spill2, align 8, !dbg !1389
  call void @llvm.dbg.declare(metadata { i8*, i8* }** %data.dbg.spill2, metadata !1381, metadata !DIExpression()), !dbg !1390
  store { i8*, i8* }* %data1, { i8*, i8* }** %data.dbg.spill3, align 8, !dbg !1391
  call void @llvm.dbg.declare(metadata { i8*, i8* }** %data.dbg.spill3, metadata !1383, metadata !DIExpression()), !dbg !1392
; call std::panicking::try::cleanup
  %1 = call { {}*, [3 x i64]* } @_ZN3std9panicking3try7cleanup17ha1de9dd6056b3de0E(i8* %payload), !dbg !1393
  %obj.0 = extractvalue { {}*, [3 x i64]* } %1, 0, !dbg !1393
  %obj.1 = extractvalue { {}*, [3 x i64]* } %1, 1, !dbg !1393
  %2 = getelementptr inbounds { {}*, [3 x i64]* }, { {}*, [3 x i64]* }* %obj.dbg.spill, i32 0, i32 0, !dbg !1393
  store {}* %obj.0, {}** %2, align 8, !dbg !1393
  %3 = getelementptr inbounds { {}*, [3 x i64]* }, { {}*, [3 x i64]* }* %obj.dbg.spill, i32 0, i32 1, !dbg !1393
  store [3 x i64]* %obj.1, [3 x i64]** %3, align 8, !dbg !1393
  call void @llvm.dbg.declare(metadata { {}*, [3 x i64]* }* %obj.dbg.spill, metadata !1385, metadata !DIExpression()), !dbg !1394
  br label %bb1, !dbg !1393

bb1:                                              ; preds = %start
  call void @llvm.experimental.noalias.scope.decl(metadata !1395), !dbg !1398
  %4 = getelementptr inbounds { {}*, [3 x i64]* }, { {}*, [3 x i64]* }* %value.dbg.spill.i, i32 0, i32 0
  store {}* %obj.0, {}** %4, align 8, !noalias !1395
  %5 = getelementptr inbounds { {}*, [3 x i64]* }, { {}*, [3 x i64]* }* %value.dbg.spill.i, i32 0, i32 1
  store [3 x i64]* %obj.1, [3 x i64]** %5, align 8, !noalias !1395
  call void @llvm.dbg.declare(metadata { {}*, [3 x i64]* }* %value.dbg.spill.i, metadata !1366, metadata !DIExpression()), !dbg !1399
  %6 = bitcast { i8*, i64* }* %0 to { {}*, [3 x i64]* }*, !dbg !1401
  %7 = getelementptr inbounds { {}*, [3 x i64]* }, { {}*, [3 x i64]* }* %6, i32 0, i32 0, !dbg !1401
  store {}* %obj.0, {}** %7, align 8, !dbg !1401, !noalias !1395
  %8 = getelementptr inbounds { {}*, [3 x i64]* }, { {}*, [3 x i64]* }* %6, i32 0, i32 1, !dbg !1401
  store [3 x i64]* %obj.1, [3 x i64]** %8, align 8, !dbg !1401, !noalias !1395
  %9 = getelementptr inbounds { i8*, i64* }, { i8*, i64* }* %0, i32 0, i32 0, !dbg !1402
  %10 = load i8*, i8** %9, align 8, !dbg !1402, !noalias !1395, !nonnull !4
  %11 = getelementptr inbounds { i8*, i64* }, { i8*, i64* }* %0, i32 0, i32 1, !dbg !1402
  %12 = load i64*, i64** %11, align 8, !dbg !1402, !noalias !1395, !nonnull !4
  %13 = insertvalue { i8*, i64* } undef, i8* %10, 0, !dbg !1402
  %14 = insertvalue { i8*, i64* } %13, i64* %12, 1, !dbg !1402
  %_8.0 = extractvalue { i8*, i64* } %14, 0, !dbg !1398
  %_8.1 = extractvalue { i8*, i64* } %14, 1, !dbg !1398
  br label %bb2, !dbg !1398

bb2:                                              ; preds = %bb1
  %15 = bitcast { i8*, i8* }* %data1 to { i8*, i64* }*, !dbg !1403
  %16 = getelementptr inbounds { i8*, i64* }, { i8*, i64* }* %15, i32 0, i32 0, !dbg !1403
  store i8* %_8.0, i8** %16, align 8, !dbg !1403
  %17 = getelementptr inbounds { i8*, i64* }, { i8*, i64* }* %15, i32 0, i32 1, !dbg !1403
  store i64* %_8.1, i64** %17, align 8, !dbg !1403
  ret void, !dbg !1404
}

; <&T as core::fmt::Debug>::fmt
; Function Attrs: uwtable
define internal zeroext i1 @"_ZN42_$LT$$RF$T$u20$as$u20$core..fmt..Debug$GT$3fmt17hc2df9cd139e28b5fE"(i32** align 8 dereferenceable(8) %self, %"std::fmt::Formatter"* align 8 dereferenceable(64) %f) unnamed_addr #0 !dbg !1405 {
start:
  %f.dbg.spill = alloca %"std::fmt::Formatter"*, align 8
  %self.dbg.spill = alloca i32**, align 8
  store i32** %self, i32*** %self.dbg.spill, align 8
  call void @llvm.dbg.declare(metadata i32*** %self.dbg.spill, metadata !1428, metadata !DIExpression()), !dbg !1432
  store %"std::fmt::Formatter"* %f, %"std::fmt::Formatter"** %f.dbg.spill, align 8
  call void @llvm.dbg.declare(metadata %"std::fmt::Formatter"** %f.dbg.spill, metadata !1429, metadata !DIExpression()), !dbg !1433
  %_4 = load i32*, i32** %self, align 8, !dbg !1434, !nonnull !4
; call core::fmt::num::<impl core::fmt::Debug for i32>::fmt
  %0 = call zeroext i1 @"_ZN4core3fmt3num50_$LT$impl$u20$core..fmt..Debug$u20$for$u20$i32$GT$3fmt17ha4751adb74445810E"(i32* align 4 dereferenceable(4) %_4, %"std::fmt::Formatter"* align 8 dereferenceable(64) %f), !dbg !1435
  br label %bb1, !dbg !1435

bb1:                                              ; preds = %start
  ret i1 %0, !dbg !1436
}

; <&T as core::fmt::Display>::fmt
; Function Attrs: uwtable
define internal zeroext i1 @"_ZN44_$LT$$RF$T$u20$as$u20$core..fmt..Display$GT$3fmt17hb4a3ba81325f7734E"({ [0 x i8]*, i64 }* align 8 dereferenceable(16) %self, %"std::fmt::Formatter"* align 8 dereferenceable(64) %f) unnamed_addr #0 !dbg !1437 {
start:
  %f.dbg.spill = alloca %"std::fmt::Formatter"*, align 8
  %self.dbg.spill = alloca { [0 x i8]*, i64 }*, align 8
  store { [0 x i8]*, i64 }* %self, { [0 x i8]*, i64 }** %self.dbg.spill, align 8
  call void @llvm.dbg.declare(metadata { [0 x i8]*, i64 }** %self.dbg.spill, metadata !1442, metadata !DIExpression()), !dbg !1446
  store %"std::fmt::Formatter"* %f, %"std::fmt::Formatter"** %f.dbg.spill, align 8
  call void @llvm.dbg.declare(metadata %"std::fmt::Formatter"** %f.dbg.spill, metadata !1443, metadata !DIExpression()), !dbg !1447
  %0 = getelementptr inbounds { [0 x i8]*, i64 }, { [0 x i8]*, i64 }* %self, i32 0, i32 0, !dbg !1448
  %_4.0 = load [0 x i8]*, [0 x i8]** %0, align 8, !dbg !1448, !nonnull !4
  %1 = getelementptr inbounds { [0 x i8]*, i64 }, { [0 x i8]*, i64 }* %self, i32 0, i32 1, !dbg !1448
  %_4.1 = load i64, i64* %1, align 8, !dbg !1448
; call <str as core::fmt::Display>::fmt
  %2 = call zeroext i1 @"_ZN42_$LT$str$u20$as$u20$core..fmt..Display$GT$3fmt17h1b87012f0e20cf40E"([0 x i8]* nonnull align 1 %_4.0, i64 %_4.1, %"std::fmt::Formatter"* align 8 dereferenceable(64) %f), !dbg !1449
  br label %bb1, !dbg !1449

bb1:                                              ; preds = %start
  ret i1 %2, !dbg !1450
}

; core::fmt::ArgumentV1::new
; Function Attrs: uwtable
define internal { i8*, i64* } @_ZN4core3fmt10ArgumentV13new17h22a3baa7c34b14c7E(i32* align 4 dereferenceable(4) %x, i1 (i32*, %"std::fmt::Formatter"*)* nonnull %f) unnamed_addr #0 !dbg !1451 {
start:
  %0 = alloca %"core::fmt::Opaque"*, align 8
  %1 = alloca i1 (%"core::fmt::Opaque"*, %"std::fmt::Formatter"*)*, align 8
  %f.dbg.spill = alloca i1 (i32*, %"std::fmt::Formatter"*)*, align 8
  %x.dbg.spill = alloca i32*, align 8
  %2 = alloca { i8*, i64* }, align 8
  store i32* %x, i32** %x.dbg.spill, align 8
  call void @llvm.dbg.declare(metadata i32** %x.dbg.spill, metadata !1468, metadata !DIExpression()), !dbg !1472
  store i1 (i32*, %"std::fmt::Formatter"*)* %f, i1 (i32*, %"std::fmt::Formatter"*)** %f.dbg.spill, align 8
  call void @llvm.dbg.declare(metadata i1 (i32*, %"std::fmt::Formatter"*)** %f.dbg.spill, metadata !1469, metadata !DIExpression()), !dbg !1473
  %3 = bitcast i1 (i32*, %"std::fmt::Formatter"*)* %f to i1 (%"core::fmt::Opaque"*, %"std::fmt::Formatter"*)*, !dbg !1474
  store i1 (%"core::fmt::Opaque"*, %"std::fmt::Formatter"*)* %3, i1 (%"core::fmt::Opaque"*, %"std::fmt::Formatter"*)** %1, align 8, !dbg !1474
  %_3 = load i1 (%"core::fmt::Opaque"*, %"std::fmt::Formatter"*)*, i1 (%"core::fmt::Opaque"*, %"std::fmt::Formatter"*)** %1, align 8, !dbg !1474, !nonnull !4
  br label %bb1, !dbg !1474

bb1:                                              ; preds = %start
  %4 = bitcast i32* %x to %"core::fmt::Opaque"*, !dbg !1475
  store %"core::fmt::Opaque"* %4, %"core::fmt::Opaque"** %0, align 8, !dbg !1475
  %_5 = load %"core::fmt::Opaque"*, %"core::fmt::Opaque"** %0, align 8, !dbg !1475, !nonnull !4
  br label %bb2, !dbg !1475

bb2:                                              ; preds = %bb1
  %5 = bitcast { i8*, i64* }* %2 to %"core::fmt::Opaque"**, !dbg !1476
  store %"core::fmt::Opaque"* %_5, %"core::fmt::Opaque"** %5, align 8, !dbg !1476
  %6 = getelementptr inbounds { i8*, i64* }, { i8*, i64* }* %2, i32 0, i32 1, !dbg !1476
  %7 = bitcast i64** %6 to i1 (%"core::fmt::Opaque"*, %"std::fmt::Formatter"*)**, !dbg !1476
  store i1 (%"core::fmt::Opaque"*, %"std::fmt::Formatter"*)* %_3, i1 (%"core::fmt::Opaque"*, %"std::fmt::Formatter"*)** %7, align 8, !dbg !1476
  %8 = getelementptr inbounds { i8*, i64* }, { i8*, i64* }* %2, i32 0, i32 0, !dbg !1477
  %9 = load i8*, i8** %8, align 8, !dbg !1477, !nonnull !4
  %10 = getelementptr inbounds { i8*, i64* }, { i8*, i64* }* %2, i32 0, i32 1, !dbg !1477
  %11 = load i64*, i64** %10, align 8, !dbg !1477, !nonnull !4
  %12 = insertvalue { i8*, i64* } undef, i8* %9, 0, !dbg !1477
  %13 = insertvalue { i8*, i64* } %12, i64* %11, 1, !dbg !1477
  ret { i8*, i64* } %13, !dbg !1477
}

; core::fmt::ArgumentV1::new
; Function Attrs: uwtable
define internal { i8*, i64* } @_ZN4core3fmt10ArgumentV13new17haf53d3c6ff6c22feE(i32** align 8 dereferenceable(8) %x, i1 (i32**, %"std::fmt::Formatter"*)* nonnull %f) unnamed_addr #0 !dbg !1478 {
start:
  %0 = alloca %"core::fmt::Opaque"*, align 8
  %1 = alloca i1 (%"core::fmt::Opaque"*, %"std::fmt::Formatter"*)*, align 8
  %f.dbg.spill = alloca i1 (i32**, %"std::fmt::Formatter"*)*, align 8
  %x.dbg.spill = alloca i32**, align 8
  %2 = alloca { i8*, i64* }, align 8
  store i32** %x, i32*** %x.dbg.spill, align 8
  call void @llvm.dbg.declare(metadata i32*** %x.dbg.spill, metadata !1483, metadata !DIExpression()), !dbg !1487
  store i1 (i32**, %"std::fmt::Formatter"*)* %f, i1 (i32**, %"std::fmt::Formatter"*)** %f.dbg.spill, align 8
  call void @llvm.dbg.declare(metadata i1 (i32**, %"std::fmt::Formatter"*)** %f.dbg.spill, metadata !1484, metadata !DIExpression()), !dbg !1488
  %3 = bitcast i1 (i32**, %"std::fmt::Formatter"*)* %f to i1 (%"core::fmt::Opaque"*, %"std::fmt::Formatter"*)*, !dbg !1489
  store i1 (%"core::fmt::Opaque"*, %"std::fmt::Formatter"*)* %3, i1 (%"core::fmt::Opaque"*, %"std::fmt::Formatter"*)** %1, align 8, !dbg !1489
  %_3 = load i1 (%"core::fmt::Opaque"*, %"std::fmt::Formatter"*)*, i1 (%"core::fmt::Opaque"*, %"std::fmt::Formatter"*)** %1, align 8, !dbg !1489, !nonnull !4
  br label %bb1, !dbg !1489

bb1:                                              ; preds = %start
  %4 = bitcast i32** %x to %"core::fmt::Opaque"*, !dbg !1490
  store %"core::fmt::Opaque"* %4, %"core::fmt::Opaque"** %0, align 8, !dbg !1490
  %_5 = load %"core::fmt::Opaque"*, %"core::fmt::Opaque"** %0, align 8, !dbg !1490, !nonnull !4
  br label %bb2, !dbg !1490

bb2:                                              ; preds = %bb1
  %5 = bitcast { i8*, i64* }* %2 to %"core::fmt::Opaque"**, !dbg !1491
  store %"core::fmt::Opaque"* %_5, %"core::fmt::Opaque"** %5, align 8, !dbg !1491
  %6 = getelementptr inbounds { i8*, i64* }, { i8*, i64* }* %2, i32 0, i32 1, !dbg !1491
  %7 = bitcast i64** %6 to i1 (%"core::fmt::Opaque"*, %"std::fmt::Formatter"*)**, !dbg !1491
  store i1 (%"core::fmt::Opaque"*, %"std::fmt::Formatter"*)* %_3, i1 (%"core::fmt::Opaque"*, %"std::fmt::Formatter"*)** %7, align 8, !dbg !1491
  %8 = getelementptr inbounds { i8*, i64* }, { i8*, i64* }* %2, i32 0, i32 0, !dbg !1492
  %9 = load i8*, i8** %8, align 8, !dbg !1492, !nonnull !4
  %10 = getelementptr inbounds { i8*, i64* }, { i8*, i64* }* %2, i32 0, i32 1, !dbg !1492
  %11 = load i64*, i64** %10, align 8, !dbg !1492, !nonnull !4
  %12 = insertvalue { i8*, i64* } undef, i8* %9, 0, !dbg !1492
  %13 = insertvalue { i8*, i64* } %12, i64* %11, 1, !dbg !1492
  ret { i8*, i64* } %13, !dbg !1492
}

; core::fmt::ArgumentV1::new
; Function Attrs: uwtable
define internal { i8*, i64* } @_ZN4core3fmt10ArgumentV13new17hdb06748d72681bacE({ [0 x i8]*, i64 }* align 8 dereferenceable(16) %x, i1 ({ [0 x i8]*, i64 }*, %"std::fmt::Formatter"*)* nonnull %f) unnamed_addr #0 !dbg !1493 {
start:
  %0 = alloca %"core::fmt::Opaque"*, align 8
  %1 = alloca i1 (%"core::fmt::Opaque"*, %"std::fmt::Formatter"*)*, align 8
  %f.dbg.spill = alloca i1 ({ [0 x i8]*, i64 }*, %"std::fmt::Formatter"*)*, align 8
  %x.dbg.spill = alloca { [0 x i8]*, i64 }*, align 8
  %2 = alloca { i8*, i64* }, align 8
  store { [0 x i8]*, i64 }* %x, { [0 x i8]*, i64 }** %x.dbg.spill, align 8
  call void @llvm.dbg.declare(metadata { [0 x i8]*, i64 }** %x.dbg.spill, metadata !1498, metadata !DIExpression()), !dbg !1502
  store i1 ({ [0 x i8]*, i64 }*, %"std::fmt::Formatter"*)* %f, i1 ({ [0 x i8]*, i64 }*, %"std::fmt::Formatter"*)** %f.dbg.spill, align 8
  call void @llvm.dbg.declare(metadata i1 ({ [0 x i8]*, i64 }*, %"std::fmt::Formatter"*)** %f.dbg.spill, metadata !1499, metadata !DIExpression()), !dbg !1503
  %3 = bitcast i1 ({ [0 x i8]*, i64 }*, %"std::fmt::Formatter"*)* %f to i1 (%"core::fmt::Opaque"*, %"std::fmt::Formatter"*)*, !dbg !1504
  store i1 (%"core::fmt::Opaque"*, %"std::fmt::Formatter"*)* %3, i1 (%"core::fmt::Opaque"*, %"std::fmt::Formatter"*)** %1, align 8, !dbg !1504
  %_3 = load i1 (%"core::fmt::Opaque"*, %"std::fmt::Formatter"*)*, i1 (%"core::fmt::Opaque"*, %"std::fmt::Formatter"*)** %1, align 8, !dbg !1504, !nonnull !4
  br label %bb1, !dbg !1504

bb1:                                              ; preds = %start
  %4 = bitcast { [0 x i8]*, i64 }* %x to %"core::fmt::Opaque"*, !dbg !1505
  store %"core::fmt::Opaque"* %4, %"core::fmt::Opaque"** %0, align 8, !dbg !1505
  %_5 = load %"core::fmt::Opaque"*, %"core::fmt::Opaque"** %0, align 8, !dbg !1505, !nonnull !4
  br label %bb2, !dbg !1505

bb2:                                              ; preds = %bb1
  %5 = bitcast { i8*, i64* }* %2 to %"core::fmt::Opaque"**, !dbg !1506
  store %"core::fmt::Opaque"* %_5, %"core::fmt::Opaque"** %5, align 8, !dbg !1506
  %6 = getelementptr inbounds { i8*, i64* }, { i8*, i64* }* %2, i32 0, i32 1, !dbg !1506
  %7 = bitcast i64** %6 to i1 (%"core::fmt::Opaque"*, %"std::fmt::Formatter"*)**, !dbg !1506
  store i1 (%"core::fmt::Opaque"*, %"std::fmt::Formatter"*)* %_3, i1 (%"core::fmt::Opaque"*, %"std::fmt::Formatter"*)** %7, align 8, !dbg !1506
  %8 = getelementptr inbounds { i8*, i64* }, { i8*, i64* }* %2, i32 0, i32 0, !dbg !1507
  %9 = load i8*, i8** %8, align 8, !dbg !1507, !nonnull !4
  %10 = getelementptr inbounds { i8*, i64* }, { i8*, i64* }* %2, i32 0, i32 1, !dbg !1507
  %11 = load i64*, i64** %10, align 8, !dbg !1507, !nonnull !4
  %12 = insertvalue { i8*, i64* } undef, i8* %9, 0, !dbg !1507
  %13 = insertvalue { i8*, i64* } %12, i64* %11, 1, !dbg !1507
  ret { i8*, i64* } %13, !dbg !1507
}

; core::fmt::num::<impl core::fmt::Debug for i32>::fmt
; Function Attrs: inlinehint uwtable
define internal zeroext i1 @"_ZN4core3fmt3num50_$LT$impl$u20$core..fmt..Debug$u20$for$u20$i32$GT$3fmt17ha4751adb74445810E"(i32* align 4 dereferenceable(4) %self, %"std::fmt::Formatter"* align 8 dereferenceable(64) %f) unnamed_addr #1 !dbg !1508 {
start:
  %f.dbg.spill = alloca %"std::fmt::Formatter"*, align 8
  %self.dbg.spill = alloca i32*, align 8
  %0 = alloca i8, align 1
  store i32* %self, i32** %self.dbg.spill, align 8
  call void @llvm.dbg.declare(metadata i32** %self.dbg.spill, metadata !1515, metadata !DIExpression()), !dbg !1517
  store %"std::fmt::Formatter"* %f, %"std::fmt::Formatter"** %f.dbg.spill, align 8
  call void @llvm.dbg.declare(metadata %"std::fmt::Formatter"** %f.dbg.spill, metadata !1516, metadata !DIExpression()), !dbg !1518
; call core::fmt::Formatter::debug_lower_hex
  %_3 = call zeroext i1 @_ZN4core3fmt9Formatter15debug_lower_hex17hdf9d0448933b7ee2E(%"std::fmt::Formatter"* align 8 dereferenceable(64) %f), !dbg !1519
  br label %bb1, !dbg !1519

bb1:                                              ; preds = %start
  br i1 %_3, label %bb2, label %bb4, !dbg !1519

bb4:                                              ; preds = %bb1
; call core::fmt::Formatter::debug_upper_hex
  %_7 = call zeroext i1 @_ZN4core3fmt9Formatter15debug_upper_hex17h59c8d98ffe3ce7a3E(%"std::fmt::Formatter"* align 8 dereferenceable(64) %f), !dbg !1520
  br label %bb5, !dbg !1520

bb2:                                              ; preds = %bb1
; call core::fmt::num::<impl core::fmt::LowerHex for i32>::fmt
  %1 = call zeroext i1 @"_ZN4core3fmt3num53_$LT$impl$u20$core..fmt..LowerHex$u20$for$u20$i32$GT$3fmt17h4aa4c67f2d8db1b9E"(i32* align 4 dereferenceable(4) %self, %"std::fmt::Formatter"* align 8 dereferenceable(64) %f), !dbg !1521
  %2 = zext i1 %1 to i8, !dbg !1521
  store i8 %2, i8* %0, align 1, !dbg !1521
  br label %bb3, !dbg !1521

bb3:                                              ; preds = %bb2
  br label %bb11, !dbg !1522

bb11:                                             ; preds = %bb10, %bb3
  %3 = load i8, i8* %0, align 1, !dbg !1523, !range !769
  %4 = trunc i8 %3 to i1, !dbg !1523
  ret i1 %4, !dbg !1523

bb5:                                              ; preds = %bb4
  br i1 %_7, label %bb6, label %bb8, !dbg !1520

bb8:                                              ; preds = %bb5
; call core::fmt::num::imp::<impl core::fmt::Display for i32>::fmt
  %5 = call zeroext i1 @"_ZN4core3fmt3num3imp52_$LT$impl$u20$core..fmt..Display$u20$for$u20$i32$GT$3fmt17heee3e7cf359dc8ffE"(i32* align 4 dereferenceable(4) %self, %"std::fmt::Formatter"* align 8 dereferenceable(64) %f), !dbg !1524
  %6 = zext i1 %5 to i8, !dbg !1524
  store i8 %6, i8* %0, align 1, !dbg !1524
  br label %bb9, !dbg !1524

bb6:                                              ; preds = %bb5
; call core::fmt::num::<impl core::fmt::UpperHex for i32>::fmt
  %7 = call zeroext i1 @"_ZN4core3fmt3num53_$LT$impl$u20$core..fmt..UpperHex$u20$for$u20$i32$GT$3fmt17hbfc6ca3d13d33fc3E"(i32* align 4 dereferenceable(4) %self, %"std::fmt::Formatter"* align 8 dereferenceable(64) %f), !dbg !1525
  %8 = zext i1 %7 to i8, !dbg !1525
  store i8 %8, i8* %0, align 1, !dbg !1525
  br label %bb7, !dbg !1525

bb7:                                              ; preds = %bb6
  br label %bb10, !dbg !1526

bb10:                                             ; preds = %bb9, %bb7
  br label %bb11, !dbg !1522

bb9:                                              ; preds = %bb8
  br label %bb10, !dbg !1526
}

; core::fmt::Arguments::new_v1_formatted
; Function Attrs: inlinehint uwtable
define internal void @_ZN4core3fmt9Arguments16new_v1_formatted17hb3f6e9123072762cE(%"std::fmt::Arguments"* noalias nocapture sret(%"std::fmt::Arguments") dereferenceable(48) %0, [0 x { [0 x i8]*, i64 }]* nonnull align 8 %pieces.0, i64 %pieces.1, [0 x { i8*, i64* }]* nonnull align 8 %args.0, i64 %args.1, [0 x %"std::fmt::rt::v1::Argument"]* nonnull align 8 %fmt.0, i64 %fmt.1) unnamed_addr #1 !dbg !1527 {
start:
  %fmt.dbg.spill = alloca { [0 x %"std::fmt::rt::v1::Argument"]*, i64 }, align 8
  %args.dbg.spill = alloca { [0 x { i8*, i64* }]*, i64 }, align 8
  %pieces.dbg.spill = alloca { [0 x { [0 x i8]*, i64 }]*, i64 }, align 8
  %_5 = alloca { i64*, i64 }, align 8
  %1 = getelementptr inbounds { [0 x { [0 x i8]*, i64 }]*, i64 }, { [0 x { [0 x i8]*, i64 }]*, i64 }* %pieces.dbg.spill, i32 0, i32 0
  store [0 x { [0 x i8]*, i64 }]* %pieces.0, [0 x { [0 x i8]*, i64 }]** %1, align 8
  %2 = getelementptr inbounds { [0 x { [0 x i8]*, i64 }]*, i64 }, { [0 x { [0 x i8]*, i64 }]*, i64 }* %pieces.dbg.spill, i32 0, i32 1
  store i64 %pieces.1, i64* %2, align 8
  call void @llvm.dbg.declare(metadata { [0 x { [0 x i8]*, i64 }]*, i64 }* %pieces.dbg.spill, metadata !1589, metadata !DIExpression()), !dbg !1592
  %3 = getelementptr inbounds { [0 x { i8*, i64* }]*, i64 }, { [0 x { i8*, i64* }]*, i64 }* %args.dbg.spill, i32 0, i32 0
  store [0 x { i8*, i64* }]* %args.0, [0 x { i8*, i64* }]** %3, align 8
  %4 = getelementptr inbounds { [0 x { i8*, i64* }]*, i64 }, { [0 x { i8*, i64* }]*, i64 }* %args.dbg.spill, i32 0, i32 1
  store i64 %args.1, i64* %4, align 8
  call void @llvm.dbg.declare(metadata { [0 x { i8*, i64* }]*, i64 }* %args.dbg.spill, metadata !1590, metadata !DIExpression()), !dbg !1593
  %5 = getelementptr inbounds { [0 x %"std::fmt::rt::v1::Argument"]*, i64 }, { [0 x %"std::fmt::rt::v1::Argument"]*, i64 }* %fmt.dbg.spill, i32 0, i32 0
  store [0 x %"std::fmt::rt::v1::Argument"]* %fmt.0, [0 x %"std::fmt::rt::v1::Argument"]** %5, align 8
  %6 = getelementptr inbounds { [0 x %"std::fmt::rt::v1::Argument"]*, i64 }, { [0 x %"std::fmt::rt::v1::Argument"]*, i64 }* %fmt.dbg.spill, i32 0, i32 1
  store i64 %fmt.1, i64* %6, align 8
  call void @llvm.dbg.declare(metadata { [0 x %"std::fmt::rt::v1::Argument"]*, i64 }* %fmt.dbg.spill, metadata !1591, metadata !DIExpression()), !dbg !1594
  %7 = bitcast { i64*, i64 }* %_5 to { [0 x %"std::fmt::rt::v1::Argument"]*, i64 }*, !dbg !1595
  %8 = getelementptr inbounds { [0 x %"std::fmt::rt::v1::Argument"]*, i64 }, { [0 x %"std::fmt::rt::v1::Argument"]*, i64 }* %7, i32 0, i32 0, !dbg !1595
  store [0 x %"std::fmt::rt::v1::Argument"]* %fmt.0, [0 x %"std::fmt::rt::v1::Argument"]** %8, align 8, !dbg !1595
  %9 = getelementptr inbounds { [0 x %"std::fmt::rt::v1::Argument"]*, i64 }, { [0 x %"std::fmt::rt::v1::Argument"]*, i64 }* %7, i32 0, i32 1, !dbg !1595
  store i64 %fmt.1, i64* %9, align 8, !dbg !1595
  %10 = bitcast %"std::fmt::Arguments"* %0 to { [0 x { [0 x i8]*, i64 }]*, i64 }*, !dbg !1596
  %11 = getelementptr inbounds { [0 x { [0 x i8]*, i64 }]*, i64 }, { [0 x { [0 x i8]*, i64 }]*, i64 }* %10, i32 0, i32 0, !dbg !1596
  store [0 x { [0 x i8]*, i64 }]* %pieces.0, [0 x { [0 x i8]*, i64 }]** %11, align 8, !dbg !1596
  %12 = getelementptr inbounds { [0 x { [0 x i8]*, i64 }]*, i64 }, { [0 x { [0 x i8]*, i64 }]*, i64 }* %10, i32 0, i32 1, !dbg !1596
  store i64 %pieces.1, i64* %12, align 8, !dbg !1596
  %13 = getelementptr inbounds %"std::fmt::Arguments", %"std::fmt::Arguments"* %0, i32 0, i32 1, !dbg !1596
  %14 = getelementptr inbounds { i64*, i64 }, { i64*, i64 }* %_5, i32 0, i32 0, !dbg !1596
  %15 = load i64*, i64** %14, align 8, !dbg !1596
  %16 = getelementptr inbounds { i64*, i64 }, { i64*, i64 }* %_5, i32 0, i32 1, !dbg !1596
  %17 = load i64, i64* %16, align 8, !dbg !1596
  %18 = getelementptr inbounds { i64*, i64 }, { i64*, i64 }* %13, i32 0, i32 0, !dbg !1596
  store i64* %15, i64** %18, align 8, !dbg !1596
  %19 = getelementptr inbounds { i64*, i64 }, { i64*, i64 }* %13, i32 0, i32 1, !dbg !1596
  store i64 %17, i64* %19, align 8, !dbg !1596
  %20 = getelementptr inbounds %"std::fmt::Arguments", %"std::fmt::Arguments"* %0, i32 0, i32 2, !dbg !1596
  %21 = getelementptr inbounds { [0 x { i8*, i64* }]*, i64 }, { [0 x { i8*, i64* }]*, i64 }* %20, i32 0, i32 0, !dbg !1596
  store [0 x { i8*, i64* }]* %args.0, [0 x { i8*, i64* }]** %21, align 8, !dbg !1596
  %22 = getelementptr inbounds { [0 x { i8*, i64* }]*, i64 }, { [0 x { i8*, i64* }]*, i64 }* %20, i32 0, i32 1, !dbg !1596
  store i64 %args.1, i64* %22, align 8, !dbg !1596
  ret void, !dbg !1597
}

; core::mem::manually_drop::ManuallyDrop<T>::take
; Function Attrs: inlinehint uwtable
define internal void @"_ZN4core3mem13manually_drop21ManuallyDrop$LT$T$GT$4take17h229e373f2c1a92a1E"(%"std::mem::ManuallyDrop<std::panic::AssertUnwindSafe<[closure@std::thread::Builder::spawn_unchecked<[closure@three_threads.rs:12:16: 15:3], ()>::{closure#0}::{closure#0}]>>"* nonnull align 1 %slot) unnamed_addr #1 !dbg !1598 {
start:
  %slot.dbg.spill = alloca %"std::mem::ManuallyDrop<std::panic::AssertUnwindSafe<[closure@std::thread::Builder::spawn_unchecked<[closure@three_threads.rs:12:16: 15:3], ()>::{closure#0}::{closure#0}]>>"*, align 8
  store %"std::mem::ManuallyDrop<std::panic::AssertUnwindSafe<[closure@std::thread::Builder::spawn_unchecked<[closure@three_threads.rs:12:16: 15:3], ()>::{closure#0}::{closure#0}]>>"* %slot, %"std::mem::ManuallyDrop<std::panic::AssertUnwindSafe<[closure@std::thread::Builder::spawn_unchecked<[closure@three_threads.rs:12:16: 15:3], ()>::{closure#0}::{closure#0}]>>"** %slot.dbg.spill, align 8
  call void @llvm.dbg.declare(metadata %"std::mem::ManuallyDrop<std::panic::AssertUnwindSafe<[closure@std::thread::Builder::spawn_unchecked<[closure@three_threads.rs:12:16: 15:3], ()>::{closure#0}::{closure#0}]>>"** %slot.dbg.spill, metadata !1603, metadata !DIExpression()), !dbg !1604
  %_3 = bitcast %"std::mem::ManuallyDrop<std::panic::AssertUnwindSafe<[closure@std::thread::Builder::spawn_unchecked<[closure@three_threads.rs:12:16: 15:3], ()>::{closure#0}::{closure#0}]>>"* %slot to %"std::panic::AssertUnwindSafe<[closure@std::thread::Builder::spawn_unchecked<[closure@three_threads.rs:12:16: 15:3], ()>::{closure#0}::{closure#0}]>"*, !dbg !1605
; call core::ptr::read
  call void @_ZN4core3ptr4read17h81da4e39898c13ddE(%"std::panic::AssertUnwindSafe<[closure@std::thread::Builder::spawn_unchecked<[closure@three_threads.rs:12:16: 15:3], ()>::{closure#0}::{closure#0}]>"* %_3), !dbg !1606
  br label %bb1, !dbg !1606

bb1:                                              ; preds = %start
  ret void, !dbg !1607
}

; core::mem::manually_drop::ManuallyDrop<T>::take
; Function Attrs: inlinehint uwtable
define internal void @"_ZN4core3mem13manually_drop21ManuallyDrop$LT$T$GT$4take17h6ef6fb087c0611c2E"(%"std::mem::ManuallyDrop<std::panic::AssertUnwindSafe<[closure@std::thread::Builder::spawn_unchecked<[closure@three_threads.rs:7:16: 10:3], ()>::{closure#0}::{closure#0}]>>"* nonnull align 1 %slot) unnamed_addr #1 !dbg !1608 {
start:
  %slot.dbg.spill = alloca %"std::mem::ManuallyDrop<std::panic::AssertUnwindSafe<[closure@std::thread::Builder::spawn_unchecked<[closure@three_threads.rs:7:16: 10:3], ()>::{closure#0}::{closure#0}]>>"*, align 8
  store %"std::mem::ManuallyDrop<std::panic::AssertUnwindSafe<[closure@std::thread::Builder::spawn_unchecked<[closure@three_threads.rs:7:16: 10:3], ()>::{closure#0}::{closure#0}]>>"* %slot, %"std::mem::ManuallyDrop<std::panic::AssertUnwindSafe<[closure@std::thread::Builder::spawn_unchecked<[closure@three_threads.rs:7:16: 10:3], ()>::{closure#0}::{closure#0}]>>"** %slot.dbg.spill, align 8
  call void @llvm.dbg.declare(metadata %"std::mem::ManuallyDrop<std::panic::AssertUnwindSafe<[closure@std::thread::Builder::spawn_unchecked<[closure@three_threads.rs:7:16: 10:3], ()>::{closure#0}::{closure#0}]>>"** %slot.dbg.spill, metadata !1613, metadata !DIExpression()), !dbg !1614
  %_3 = bitcast %"std::mem::ManuallyDrop<std::panic::AssertUnwindSafe<[closure@std::thread::Builder::spawn_unchecked<[closure@three_threads.rs:7:16: 10:3], ()>::{closure#0}::{closure#0}]>>"* %slot to %"std::panic::AssertUnwindSafe<[closure@std::thread::Builder::spawn_unchecked<[closure@three_threads.rs:7:16: 10:3], ()>::{closure#0}::{closure#0}]>"*, !dbg !1615
; call core::ptr::read
  call void @_ZN4core3ptr4read17h124d71432c29034aE(%"std::panic::AssertUnwindSafe<[closure@std::thread::Builder::spawn_unchecked<[closure@three_threads.rs:7:16: 10:3], ()>::{closure#0}::{closure#0}]>"* %_3), !dbg !1616
  br label %bb1, !dbg !1616

bb1:                                              ; preds = %start
  ret void, !dbg !1617
}

; core::mem::size_of_val_raw
; Function Attrs: inlinehint uwtable
define internal i64 @_ZN4core3mem15size_of_val_raw17h977eb92a17f5377aE(%"alloc::sync::ArcInner<std::sync::Mutex<std::vec::Vec<u8>>>"* %val) unnamed_addr #1 !dbg !1618 {
start:
  %0 = alloca i64, align 8
  %val.dbg.spill = alloca %"alloc::sync::ArcInner<std::sync::Mutex<std::vec::Vec<u8>>>"*, align 8
  store %"alloc::sync::ArcInner<std::sync::Mutex<std::vec::Vec<u8>>>"* %val, %"alloc::sync::ArcInner<std::sync::Mutex<std::vec::Vec<u8>>>"** %val.dbg.spill, align 8
  call void @llvm.dbg.declare(metadata %"alloc::sync::ArcInner<std::sync::Mutex<std::vec::Vec<u8>>>"** %val.dbg.spill, metadata !1623, metadata !DIExpression()), !dbg !1624
  store i64 56, i64* %0, align 8, !dbg !1625
  %1 = load i64, i64* %0, align 8, !dbg !1625
  br label %bb1, !dbg !1625

bb1:                                              ; preds = %start
  ret i64 %1, !dbg !1626
}

; core::mem::size_of_val_raw
; Function Attrs: inlinehint uwtable
define internal i64 @_ZN4core3mem15size_of_val_raw17hd00334531d85a37fE(%"alloc::sync::ArcInner<std::thread::Inner>"* %val) unnamed_addr #1 !dbg !1627 {
start:
  %0 = alloca i64, align 8
  %val.dbg.spill = alloca %"alloc::sync::ArcInner<std::thread::Inner>"*, align 8
  store %"alloc::sync::ArcInner<std::thread::Inner>"* %val, %"alloc::sync::ArcInner<std::thread::Inner>"** %val.dbg.spill, align 8
  call void @llvm.dbg.declare(metadata %"alloc::sync::ArcInner<std::thread::Inner>"** %val.dbg.spill, metadata !1631, metadata !DIExpression()), !dbg !1632
  store i64 80, i64* %0, align 8, !dbg !1633
  %1 = load i64, i64* %0, align 8, !dbg !1633
  br label %bb1, !dbg !1633

bb1:                                              ; preds = %start
  ret i64 %1, !dbg !1634
}

; core::mem::size_of_val_raw
; Function Attrs: inlinehint uwtable
define internal i64 @_ZN4core3mem15size_of_val_raw17he29fb0c1bf5a1aa3E(%"alloc::sync::ArcInner<std::cell::UnsafeCell<std::option::Option<std::result::Result<(), std::boxed::Box<dyn std::any::Any + std::marker::Send>>>>>"* %val) unnamed_addr #1 !dbg !1635 {
start:
  %0 = alloca i64, align 8
  %val.dbg.spill = alloca %"alloc::sync::ArcInner<std::cell::UnsafeCell<std::option::Option<std::result::Result<(), std::boxed::Box<dyn std::any::Any + std::marker::Send>>>>>"*, align 8
  store %"alloc::sync::ArcInner<std::cell::UnsafeCell<std::option::Option<std::result::Result<(), std::boxed::Box<dyn std::any::Any + std::marker::Send>>>>>"* %val, %"alloc::sync::ArcInner<std::cell::UnsafeCell<std::option::Option<std::result::Result<(), std::boxed::Box<dyn std::any::Any + std::marker::Send>>>>>"** %val.dbg.spill, align 8
  call void @llvm.dbg.declare(metadata %"alloc::sync::ArcInner<std::cell::UnsafeCell<std::option::Option<std::result::Result<(), std::boxed::Box<dyn std::any::Any + std::marker::Send>>>>>"** %val.dbg.spill, metadata !1639, metadata !DIExpression()), !dbg !1640
  store i64 40, i64* %0, align 8, !dbg !1641
  %1 = load i64, i64* %0, align 8, !dbg !1641
  br label %bb1, !dbg !1641

bb1:                                              ; preds = %start
  ret i64 %1, !dbg !1642
}

; core::mem::align_of_val_raw
; Function Attrs: inlinehint uwtable
define internal i64 @_ZN4core3mem16align_of_val_raw17h28ab41ca02326b8eE(%"alloc::sync::ArcInner<std::sync::Mutex<std::vec::Vec<u8>>>"* %val) unnamed_addr #1 !dbg !1643 {
start:
  %0 = alloca i64, align 8
  %val.dbg.spill = alloca %"alloc::sync::ArcInner<std::sync::Mutex<std::vec::Vec<u8>>>"*, align 8
  store %"alloc::sync::ArcInner<std::sync::Mutex<std::vec::Vec<u8>>>"* %val, %"alloc::sync::ArcInner<std::sync::Mutex<std::vec::Vec<u8>>>"** %val.dbg.spill, align 8
  call void @llvm.dbg.declare(metadata %"alloc::sync::ArcInner<std::sync::Mutex<std::vec::Vec<u8>>>"** %val.dbg.spill, metadata !1645, metadata !DIExpression()), !dbg !1646
  store i64 8, i64* %0, align 8, !dbg !1647
  %1 = load i64, i64* %0, align 8, !dbg !1647
  br label %bb1, !dbg !1647

bb1:                                              ; preds = %start
  ret i64 %1, !dbg !1648
}

; core::mem::align_of_val_raw
; Function Attrs: inlinehint uwtable
define internal i64 @_ZN4core3mem16align_of_val_raw17h95d5fc0c978ef552E(%"alloc::sync::ArcInner<std::thread::Inner>"* %val) unnamed_addr #1 !dbg !1649 {
start:
  %0 = alloca i64, align 8
  %val.dbg.spill = alloca %"alloc::sync::ArcInner<std::thread::Inner>"*, align 8
  store %"alloc::sync::ArcInner<std::thread::Inner>"* %val, %"alloc::sync::ArcInner<std::thread::Inner>"** %val.dbg.spill, align 8
  call void @llvm.dbg.declare(metadata %"alloc::sync::ArcInner<std::thread::Inner>"** %val.dbg.spill, metadata !1651, metadata !DIExpression()), !dbg !1652
  store i64 8, i64* %0, align 8, !dbg !1653
  %1 = load i64, i64* %0, align 8, !dbg !1653
  br label %bb1, !dbg !1653

bb1:                                              ; preds = %start
  ret i64 %1, !dbg !1654
}

; core::mem::align_of_val_raw
; Function Attrs: inlinehint uwtable
define internal i64 @_ZN4core3mem16align_of_val_raw17hd8d6c02f6a07ced9E(%"alloc::sync::ArcInner<std::cell::UnsafeCell<std::option::Option<std::result::Result<(), std::boxed::Box<dyn std::any::Any + std::marker::Send>>>>>"* %val) unnamed_addr #1 !dbg !1655 {
start:
  %0 = alloca i64, align 8
  %val.dbg.spill = alloca %"alloc::sync::ArcInner<std::cell::UnsafeCell<std::option::Option<std::result::Result<(), std::boxed::Box<dyn std::any::Any + std::marker::Send>>>>>"*, align 8
  store %"alloc::sync::ArcInner<std::cell::UnsafeCell<std::option::Option<std::result::Result<(), std::boxed::Box<dyn std::any::Any + std::marker::Send>>>>>"* %val, %"alloc::sync::ArcInner<std::cell::UnsafeCell<std::option::Option<std::result::Result<(), std::boxed::Box<dyn std::any::Any + std::marker::Send>>>>>"** %val.dbg.spill, align 8
  call void @llvm.dbg.declare(metadata %"alloc::sync::ArcInner<std::cell::UnsafeCell<std::option::Option<std::result::Result<(), std::boxed::Box<dyn std::any::Any + std::marker::Send>>>>>"** %val.dbg.spill, metadata !1657, metadata !DIExpression()), !dbg !1658
  store i64 8, i64* %0, align 8, !dbg !1659
  %1 = load i64, i64* %0, align 8, !dbg !1659
  br label %bb1, !dbg !1659

bb1:                                              ; preds = %start
  ret i64 %1, !dbg !1660
}

; core::mem::drop
; Function Attrs: inlinehint uwtable
define internal void @_ZN4core3mem4drop17h237dac23159f6ae2E(i64* nonnull %0) unnamed_addr #1 !dbg !1661 {
start:
  %_x = alloca i64*, align 8
  store i64* %0, i64** %_x, align 8
  call void @llvm.dbg.declare(metadata i64** %_x, metadata !1668, metadata !DIExpression()), !dbg !1671
; call core::ptr::drop_in_place<alloc::sync::Weak<core::cell::UnsafeCell<core::option::Option<core::result::Result<(),alloc::boxed::Box<dyn core::any::Any+core::marker::Send>>>>>>
  call void @"_ZN4core3ptr213drop_in_place$LT$alloc..sync..Weak$LT$core..cell..UnsafeCell$LT$core..option..Option$LT$core..result..Result$LT$$LP$$RP$$C$alloc..boxed..Box$LT$dyn$u20$core..any..Any$u2b$core..marker..Send$GT$$GT$$GT$$GT$$GT$$GT$17h08ec4e81c0f75bd1E"(i64** %_x), !dbg !1672
  br label %bb1, !dbg !1672

bb1:                                              ; preds = %start
  ret void, !dbg !1673
}

; core::mem::drop
; Function Attrs: inlinehint uwtable
define internal void @_ZN4core3mem4drop17h771e633e9a6cf171E(i64* nonnull %0) unnamed_addr #1 !dbg !1674 {
start:
  %_x = alloca i64*, align 8
  store i64* %0, i64** %_x, align 8
  call void @llvm.dbg.declare(metadata i64** %_x, metadata !1681, metadata !DIExpression()), !dbg !1684
; call core::ptr::drop_in_place<alloc::sync::Weak<std::sync::mutex::Mutex<alloc::vec::Vec<u8>>>>
  call void @"_ZN4core3ptr102drop_in_place$LT$alloc..sync..Weak$LT$std..sync..mutex..Mutex$LT$alloc..vec..Vec$LT$u8$GT$$GT$$GT$$GT$17h8bdae27939822eb8E"(i64** %_x), !dbg !1685
  br label %bb1, !dbg !1685

bb1:                                              ; preds = %start
  ret void, !dbg !1686
}

; core::mem::drop
; Function Attrs: inlinehint uwtable
define internal void @_ZN4core3mem4drop17h8a595b40cfb030c4E(i64* nonnull %0) unnamed_addr #1 !dbg !1687 {
start:
  %_x = alloca i64*, align 8
  store i64* %0, i64** %_x, align 8
  call void @llvm.dbg.declare(metadata i64** %_x, metadata !1694, metadata !DIExpression()), !dbg !1697
; call core::ptr::drop_in_place<alloc::sync::Weak<std::thread::Inner>>
  call void @"_ZN4core3ptr64drop_in_place$LT$alloc..sync..Weak$LT$std..thread..Inner$GT$$GT$17he1fb9b03980592c3E"(i64** %_x), !dbg !1698
  br label %bb1, !dbg !1698

bb1:                                              ; preds = %start
  ret void, !dbg !1699
}

; core::num::nonzero::NonZeroUsize::new_unchecked
; Function Attrs: inlinehint uwtable
define internal i64 @_ZN4core3num7nonzero12NonZeroUsize13new_unchecked17h96b4817dc7c487acE(i64 %n) unnamed_addr #1 !dbg !1700 {
start:
  %n.dbg.spill = alloca i64, align 8
  %0 = alloca i64, align 8
  store i64 %n, i64* %n.dbg.spill, align 8
  call void @llvm.dbg.declare(metadata i64* %n.dbg.spill, metadata !1708, metadata !DIExpression()), !dbg !1709
  store i64 %n, i64* %0, align 8, !dbg !1710
  %1 = load i64, i64* %0, align 8, !dbg !1711, !range !1712
  ret i64 %1, !dbg !1711
}

; core::num::nonzero::NonZeroUsize::get
; Function Attrs: inlinehint uwtable
define internal i64 @_ZN4core3num7nonzero12NonZeroUsize3get17haf77880ef53d625fE(i64 %self) unnamed_addr #1 !dbg !1713 {
start:
  %self.dbg.spill = alloca i64, align 8
  store i64 %self, i64* %self.dbg.spill, align 8
  call void @llvm.dbg.declare(metadata i64* %self.dbg.spill, metadata !1717, metadata !DIExpression()), !dbg !1718
  ret i64 %self, !dbg !1719
}

; core::ops::function::FnOnce::call_once{{vtable.shim}}
; Function Attrs: inlinehint uwtable
define internal void @"_ZN4core3ops8function6FnOnce40call_once$u7b$$u7b$vtable.shim$u7d$$u7d$17h8aa87b3efc051ebcE"(%"[closure@std::thread::Builder::spawn_unchecked<[closure@three_threads.rs:12:16: 15:3], ()>::{closure#0}]"* %_1) unnamed_addr #1 !dbg !1720 {
start:
  %_1.dbg.spill = alloca %"[closure@std::thread::Builder::spawn_unchecked<[closure@three_threads.rs:12:16: 15:3], ()>::{closure#0}]"*, align 8
  %_2 = alloca {}, align 1
  store %"[closure@std::thread::Builder::spawn_unchecked<[closure@three_threads.rs:12:16: 15:3], ()>::{closure#0}]"* %_1, %"[closure@std::thread::Builder::spawn_unchecked<[closure@three_threads.rs:12:16: 15:3], ()>::{closure#0}]"** %_1.dbg.spill, align 8
  call void @llvm.dbg.declare(metadata %"[closure@std::thread::Builder::spawn_unchecked<[closure@three_threads.rs:12:16: 15:3], ()>::{closure#0}]"** %_1.dbg.spill, metadata !1729, metadata !DIExpression()), !dbg !1734
  call void @llvm.dbg.declare(metadata {}* %_2, metadata !1730, metadata !DIExpression()), !dbg !1734
; call std::thread::Builder::spawn_unchecked::{{closure}}
  call void @"_ZN3std6thread7Builder15spawn_unchecked28_$u7b$$u7b$closure$u7d$$u7d$17h44f3ee49670a04c8E"(%"[closure@std::thread::Builder::spawn_unchecked<[closure@three_threads.rs:12:16: 15:3], ()>::{closure#0}]"* noalias nocapture dereferenceable(24) %_1), !dbg !1734
  br label %bb1, !dbg !1734

bb1:                                              ; preds = %start
  ret void, !dbg !1734
}

; core::ops::function::FnOnce::call_once{{vtable.shim}}
; Function Attrs: inlinehint uwtable
define internal i32 @"_ZN4core3ops8function6FnOnce40call_once$u7b$$u7b$vtable.shim$u7d$$u7d$17ha675163fa82a939bE"(i64** %_1) unnamed_addr #1 !dbg !1735 {
start:
  %_1.dbg.spill = alloca i64**, align 8
  %_2 = alloca {}, align 1
  store i64** %_1, i64*** %_1.dbg.spill, align 8
  call void @llvm.dbg.declare(metadata i64*** %_1.dbg.spill, metadata !1740, metadata !DIExpression()), !dbg !1744
  call void @llvm.dbg.declare(metadata {}* %_2, metadata !1741, metadata !DIExpression()), !dbg !1744
  %0 = load i64*, i64** %_1, align 8, !dbg !1744, !nonnull !4
; call core::ops::function::FnOnce::call_once
  %1 = call i32 @_ZN4core3ops8function6FnOnce9call_once17h19bd8b1812841b97E(i64* nonnull %0), !dbg !1744
  br label %bb1, !dbg !1744

bb1:                                              ; preds = %start
  ret i32 %1, !dbg !1744
}

; core::ops::function::FnOnce::call_once{{vtable.shim}}
; Function Attrs: inlinehint uwtable
define internal void @"_ZN4core3ops8function6FnOnce40call_once$u7b$$u7b$vtable.shim$u7d$$u7d$17hc768e7e78b14323cE"(%"[closure@std::thread::Builder::spawn_unchecked<[closure@three_threads.rs:7:16: 10:3], ()>::{closure#0}]"* %_1) unnamed_addr #1 !dbg !1745 {
start:
  %_1.dbg.spill = alloca %"[closure@std::thread::Builder::spawn_unchecked<[closure@three_threads.rs:7:16: 10:3], ()>::{closure#0}]"*, align 8
  %_2 = alloca {}, align 1
  store %"[closure@std::thread::Builder::spawn_unchecked<[closure@three_threads.rs:7:16: 10:3], ()>::{closure#0}]"* %_1, %"[closure@std::thread::Builder::spawn_unchecked<[closure@three_threads.rs:7:16: 10:3], ()>::{closure#0}]"** %_1.dbg.spill, align 8
  call void @llvm.dbg.declare(metadata %"[closure@std::thread::Builder::spawn_unchecked<[closure@three_threads.rs:7:16: 10:3], ()>::{closure#0}]"** %_1.dbg.spill, metadata !1750, metadata !DIExpression()), !dbg !1754
  call void @llvm.dbg.declare(metadata {}* %_2, metadata !1751, metadata !DIExpression()), !dbg !1754
; call std::thread::Builder::spawn_unchecked::{{closure}}
  call void @"_ZN3std6thread7Builder15spawn_unchecked28_$u7b$$u7b$closure$u7d$$u7d$17hb00d5eebb3cb9ef3E"(%"[closure@std::thread::Builder::spawn_unchecked<[closure@three_threads.rs:7:16: 10:3], ()>::{closure#0}]"* noalias nocapture dereferenceable(24) %_1), !dbg !1754
  br label %bb1, !dbg !1754

bb1:                                              ; preds = %start
  ret void, !dbg !1754
}

; core::ops::function::FnOnce::call_once
; Function Attrs: inlinehint uwtable
define internal void @_ZN4core3ops8function6FnOnce9call_once17h08d9db7964657a84E(void ()* nonnull %_1) unnamed_addr #1 !dbg !1755 {
start:
  %_1.dbg.spill = alloca void ()*, align 8
  %_2 = alloca {}, align 1
  store void ()* %_1, void ()** %_1.dbg.spill, align 8
  call void @llvm.dbg.declare(metadata void ()** %_1.dbg.spill, metadata !1757, metadata !DIExpression()), !dbg !1761
  call void @llvm.dbg.declare(metadata {}* %_2, metadata !1758, metadata !DIExpression()), !dbg !1761
  call void %_1(), !dbg !1761
  br label %bb1, !dbg !1761

bb1:                                              ; preds = %start
  ret void, !dbg !1761
}

; core::ops::function::FnOnce::call_once
; Function Attrs: inlinehint uwtable
define internal i32 @_ZN4core3ops8function6FnOnce9call_once17h19bd8b1812841b97E(i64* nonnull %0) unnamed_addr #1 personality i32 (i32, i32, i64, %"unwind::libunwind::_Unwind_Exception"*, %"unwind::libunwind::_Unwind_Context"*)* @rust_eh_personality !dbg !1762 {
start:
  %1 = alloca { i8*, i32 }, align 8
  %_2 = alloca {}, align 1
  %_1 = alloca i64*, align 8
  store i64* %0, i64** %_1, align 8
  call void @llvm.dbg.declare(metadata i64** %_1, metadata !1766, metadata !DIExpression()), !dbg !1768
  call void @llvm.dbg.declare(metadata {}* %_2, metadata !1767, metadata !DIExpression()), !dbg !1768
; invoke std::rt::lang_start::{{closure}}
  %2 = invoke i32 @"_ZN3std2rt10lang_start28_$u7b$$u7b$closure$u7d$$u7d$17h760068234c2ea0dbE"(i64** align 8 dereferenceable(8) %_1)
          to label %bb1 unwind label %cleanup, !dbg !1768

bb1:                                              ; preds = %start
  br label %bb2, !dbg !1768

bb3:                                              ; preds = %cleanup
  br label %bb4, !dbg !1768

cleanup:                                          ; preds = %start
  %3 = landingpad { i8*, i32 }
          cleanup
  %4 = extractvalue { i8*, i32 } %3, 0
  %5 = extractvalue { i8*, i32 } %3, 1
  %6 = getelementptr inbounds { i8*, i32 }, { i8*, i32 }* %1, i32 0, i32 0
  store i8* %4, i8** %6, align 8
  %7 = getelementptr inbounds { i8*, i32 }, { i8*, i32 }* %1, i32 0, i32 1
  store i32 %5, i32* %7, align 8
  br label %bb3

bb4:                                              ; preds = %bb3
  %8 = bitcast { i8*, i32 }* %1 to i8**, !dbg !1768
  %9 = load i8*, i8** %8, align 8, !dbg !1768
  %10 = getelementptr inbounds { i8*, i32 }, { i8*, i32 }* %1, i32 0, i32 1, !dbg !1768
  %11 = load i32, i32* %10, align 8, !dbg !1768
  %12 = insertvalue { i8*, i32 } undef, i8* %9, 0, !dbg !1768
  %13 = insertvalue { i8*, i32 } %12, i32 %11, 1, !dbg !1768
  resume { i8*, i32 } %13, !dbg !1768

bb2:                                              ; preds = %bb1
  ret i32 %2, !dbg !1768
}

; core::ops::function::FnOnce::call_once
; Function Attrs: inlinehint uwtable
define internal i64 @_ZN4core3ops8function6FnOnce9call_once17hc6b8203a9c84d346E() unnamed_addr #1 !dbg !1769 {
start:
  %_1.dbg.spill = alloca {}, align 1
  %_2 = alloca {}, align 1
  call void @llvm.dbg.declare(metadata {}* %_1.dbg.spill, metadata !1776, metadata !DIExpression()), !dbg !1780
  call void @llvm.dbg.declare(metadata {}* %_2, metadata !1777, metadata !DIExpression()), !dbg !1780
; call std::sys_common::thread::min_stack
  %0 = call i64 @_ZN3std10sys_common6thread9min_stack17hefb129910b9ae6e9E(), !dbg !1780
  br label %bb1, !dbg !1780

bb1:                                              ; preds = %start
  ret i64 %0, !dbg !1780
}

; core::ptr::drop_in_place<alloc::sync::Arc<std::sync::mutex::Mutex<alloc::vec::Vec<u8>>>>
; Function Attrs: uwtable
define internal void @"_ZN4core3ptr101drop_in_place$LT$alloc..sync..Arc$LT$std..sync..mutex..Mutex$LT$alloc..vec..Vec$LT$u8$GT$$GT$$GT$$GT$17he9c9b99ea15ddca4E"(i64** %_1) unnamed_addr #0 !dbg !1781 {
start:
  %_1.dbg.spill = alloca i64**, align 8
  store i64** %_1, i64*** %_1.dbg.spill, align 8
  call void @llvm.dbg.declare(metadata i64*** %_1.dbg.spill, metadata !1787, metadata !DIExpression()), !dbg !1788
; call <alloc::sync::Arc<T> as core::ops::drop::Drop>::drop
  call void @"_ZN67_$LT$alloc..sync..Arc$LT$T$GT$$u20$as$u20$core..ops..drop..Drop$GT$4drop17h0faf68570fb9494fE"(i64** align 8 dereferenceable(8) %_1), !dbg !1788
  br label %bb1, !dbg !1788

bb1:                                              ; preds = %start
  ret void, !dbg !1788
}

; core::ptr::drop_in_place<alloc::sync::Weak<std::sync::mutex::Mutex<alloc::vec::Vec<u8>>>>
; Function Attrs: uwtable
define internal void @"_ZN4core3ptr102drop_in_place$LT$alloc..sync..Weak$LT$std..sync..mutex..Mutex$LT$alloc..vec..Vec$LT$u8$GT$$GT$$GT$$GT$17h8bdae27939822eb8E"(i64** %_1) unnamed_addr #0 !dbg !1789 {
start:
  %_1.dbg.spill = alloca i64**, align 8
  store i64** %_1, i64*** %_1.dbg.spill, align 8
  call void @llvm.dbg.declare(metadata i64*** %_1.dbg.spill, metadata !1794, metadata !DIExpression()), !dbg !1795
; call <alloc::sync::Weak<T> as core::ops::drop::Drop>::drop
  call void @"_ZN68_$LT$alloc..sync..Weak$LT$T$GT$$u20$as$u20$core..ops..drop..Drop$GT$4drop17h06ed483947567209E"(i64** align 8 dereferenceable(8) %_1), !dbg !1795
  br label %bb1, !dbg !1795

bb1:                                              ; preds = %start
  ret void, !dbg !1795
}

; core::ptr::drop_in_place<alloc::boxed::Box<dyn std::error::Error+core::marker::Send+core::marker::Sync>>
; Function Attrs: uwtable
define internal void @"_ZN4core3ptr117drop_in_place$LT$alloc..boxed..Box$LT$dyn$u20$std..error..Error$u2b$core..marker..Send$u2b$core..marker..Sync$GT$$GT$17h44e5b289f46a33f2E"({ {}*, [3 x i64]* }* %_1) unnamed_addr #0 personality i32 (i32, i32, i64, %"unwind::libunwind::_Unwind_Exception"*, %"unwind::libunwind::_Unwind_Context"*)* @rust_eh_personality !dbg !1796 {
start:
  %0 = alloca { i8*, i32 }, align 8
  %_1.dbg.spill = alloca { {}*, [3 x i64]* }*, align 8
  store { {}*, [3 x i64]* }* %_1, { {}*, [3 x i64]* }** %_1.dbg.spill, align 8
  call void @llvm.dbg.declare(metadata { {}*, [3 x i64]* }** %_1.dbg.spill, metadata !1801, metadata !DIExpression()), !dbg !1804
  %1 = getelementptr inbounds { {}*, [3 x i64]* }, { {}*, [3 x i64]* }* %_1, i32 0, i32 0, !dbg !1804
  %2 = load {}*, {}** %1, align 8, !dbg !1804, !nonnull !4
  %3 = getelementptr inbounds { {}*, [3 x i64]* }, { {}*, [3 x i64]* }* %_1, i32 0, i32 1, !dbg !1804
  %4 = load [3 x i64]*, [3 x i64]** %3, align 8, !dbg !1804, !nonnull !4
  %5 = bitcast [3 x i64]* %4 to void ({}*)**, !dbg !1804
  %6 = getelementptr inbounds void ({}*)*, void ({}*)** %5, i64 0, !dbg !1804
  %7 = load void ({}*)*, void ({}*)** %6, align 8, !dbg !1804, !invariant.load !4, !nonnull !4
  invoke void %7({}* %2)
          to label %bb3 unwind label %cleanup, !dbg !1804

bb3:                                              ; preds = %start
  %8 = bitcast { {}*, [3 x i64]* }* %_1 to { i8*, i64* }*, !dbg !1804
  %9 = getelementptr inbounds { i8*, i64* }, { i8*, i64* }* %8, i32 0, i32 0, !dbg !1804
  %10 = load i8*, i8** %9, align 8, !dbg !1804, !nonnull !4
  %11 = getelementptr inbounds { i8*, i64* }, { i8*, i64* }* %8, i32 0, i32 1, !dbg !1804
  %12 = load i64*, i64** %11, align 8, !dbg !1804, !nonnull !4
; call alloc::alloc::box_free
  call void @_ZN5alloc5alloc8box_free17hf0de06cca5a22764E(i8* nonnull %10, i64* align 8 dereferenceable(24) %12), !dbg !1804
  br label %bb1, !dbg !1804

bb4:                                              ; preds = %cleanup
  %13 = bitcast { {}*, [3 x i64]* }* %_1 to { i8*, i64* }*, !dbg !1804
  %14 = getelementptr inbounds { i8*, i64* }, { i8*, i64* }* %13, i32 0, i32 0, !dbg !1804
  %15 = load i8*, i8** %14, align 8, !dbg !1804, !nonnull !4
  %16 = getelementptr inbounds { i8*, i64* }, { i8*, i64* }* %13, i32 0, i32 1, !dbg !1804
  %17 = load i64*, i64** %16, align 8, !dbg !1804, !nonnull !4
; call alloc::alloc::box_free
  call void @_ZN5alloc5alloc8box_free17hf0de06cca5a22764E(i8* nonnull %15, i64* align 8 dereferenceable(24) %17) #14, !dbg !1804
  br label %bb2, !dbg !1804

cleanup:                                          ; preds = %start
  %18 = landingpad { i8*, i32 }
          cleanup
  %19 = extractvalue { i8*, i32 } %18, 0
  %20 = extractvalue { i8*, i32 } %18, 1
  %21 = getelementptr inbounds { i8*, i32 }, { i8*, i32 }* %0, i32 0, i32 0
  store i8* %19, i8** %21, align 8
  %22 = getelementptr inbounds { i8*, i32 }, { i8*, i32 }* %0, i32 0, i32 1
  store i32 %20, i32* %22, align 8
  br label %bb4

bb2:                                              ; preds = %bb4
  %23 = bitcast { i8*, i32 }* %0 to i8**, !dbg !1804
  %24 = load i8*, i8** %23, align 8, !dbg !1804
  %25 = getelementptr inbounds { i8*, i32 }, { i8*, i32 }* %0, i32 0, i32 1, !dbg !1804
  %26 = load i32, i32* %25, align 8, !dbg !1804
  %27 = insertvalue { i8*, i32 } undef, i8* %24, 0, !dbg !1804
  %28 = insertvalue { i8*, i32 } %27, i32 %26, 1, !dbg !1804
  resume { i8*, i32 } %28, !dbg !1804

bb1:                                              ; preds = %bb3
  ret void, !dbg !1804
}

; core::ptr::drop_in_place<core::option::Option<alloc::sync::Arc<std::sync::mutex::Mutex<alloc::vec::Vec<u8>>>>>
; Function Attrs: uwtable
define internal void @"_ZN4core3ptr129drop_in_place$LT$core..option..Option$LT$alloc..sync..Arc$LT$std..sync..mutex..Mutex$LT$alloc..vec..Vec$LT$u8$GT$$GT$$GT$$GT$$GT$17h77905d1796e37b8aE"(i64** %_1) unnamed_addr #0 !dbg !1805 {
start:
  %_1.dbg.spill = alloca i64**, align 8
  store i64** %_1, i64*** %_1.dbg.spill, align 8
  call void @llvm.dbg.declare(metadata i64*** %_1.dbg.spill, metadata !1810, metadata !DIExpression()), !dbg !1813
  %0 = bitcast i64** %_1 to {}**, !dbg !1813
  %1 = load {}*, {}** %0, align 8, !dbg !1813
  %2 = icmp eq {}* %1, null, !dbg !1813
  %_2 = select i1 %2, i64 0, i64 1, !dbg !1813
  %3 = icmp eq i64 %_2, 0, !dbg !1813
  br i1 %3, label %bb1, label %bb2, !dbg !1813

bb1:                                              ; preds = %bb2, %start
  ret void, !dbg !1813

bb2:                                              ; preds = %start
; call core::ptr::drop_in_place<alloc::sync::Arc<std::sync::mutex::Mutex<alloc::vec::Vec<u8>>>>
  call void @"_ZN4core3ptr101drop_in_place$LT$alloc..sync..Arc$LT$std..sync..mutex..Mutex$LT$alloc..vec..Vec$LT$u8$GT$$GT$$GT$$GT$17he9c9b99ea15ddca4E"(i64** %_1), !dbg !1813
  br label %bb1, !dbg !1813
}

; core::ptr::drop_in_place<core::result::Result<(),alloc::boxed::Box<dyn core::any::Any+core::marker::Send>>>
; Function Attrs: uwtable
define internal void @"_ZN4core3ptr130drop_in_place$LT$core..result..Result$LT$$LP$$RP$$C$alloc..boxed..Box$LT$dyn$u20$core..any..Any$u2b$core..marker..Send$GT$$GT$$GT$17h4881e4ec5eb1fb94E"({ i8*, i8* }* %_1) unnamed_addr #0 !dbg !1814 {
start:
  %_1.dbg.spill = alloca { i8*, i8* }*, align 8
  store { i8*, i8* }* %_1, { i8*, i8* }** %_1.dbg.spill, align 8
  call void @llvm.dbg.declare(metadata { i8*, i8* }** %_1.dbg.spill, metadata !1819, metadata !DIExpression()), !dbg !1820
  %0 = bitcast { i8*, i8* }* %_1 to {}**, !dbg !1820
  %1 = load {}*, {}** %0, align 8, !dbg !1820
  %2 = icmp eq {}* %1, null, !dbg !1820
  %_2 = select i1 %2, i64 0, i64 1, !dbg !1820
  %3 = icmp eq i64 %_2, 0, !dbg !1820
  br i1 %3, label %bb1, label %bb2, !dbg !1820

bb1:                                              ; preds = %bb2, %start
  ret void, !dbg !1820

bb2:                                              ; preds = %start
  %4 = bitcast { i8*, i8* }* %_1 to { {}*, [3 x i64]* }*, !dbg !1820
; call core::ptr::drop_in_place<alloc::boxed::Box<dyn core::any::Any+core::marker::Send>>
  call void @"_ZN4core3ptr91drop_in_place$LT$alloc..boxed..Box$LT$dyn$u20$core..any..Any$u2b$core..marker..Send$GT$$GT$17h62c46c7117a81143E"({ {}*, [3 x i64]* }* %4), !dbg !1820
  br label %bb1, !dbg !1820
}

; core::ptr::drop_in_place<std::thread::Builder::spawn_unchecked<three_threads::main::{{closure}},()>::{{closure}}>
; Function Attrs: uwtable
define internal void @"_ZN4core3ptr154drop_in_place$LT$std..thread..Builder..spawn_unchecked$LT$three_threads..main..$u7b$$u7b$closure$u7d$$u7d$$C$$LP$$RP$$GT$..$u7b$$u7b$closure$u7d$$u7d$$GT$17h1b65384692c3d3c2E"(%"[closure@std::thread::Builder::spawn_unchecked<[closure@three_threads.rs:12:16: 15:3], ()>::{closure#0}]"* %_1) unnamed_addr #0 personality i32 (i32, i32, i64, %"unwind::libunwind::_Unwind_Exception"*, %"unwind::libunwind::_Unwind_Context"*)* @rust_eh_personality !dbg !1821 {
start:
  %0 = alloca { i8*, i32 }, align 8
  %_1.dbg.spill = alloca %"[closure@std::thread::Builder::spawn_unchecked<[closure@three_threads.rs:12:16: 15:3], ()>::{closure#0}]"*, align 8
  store %"[closure@std::thread::Builder::spawn_unchecked<[closure@three_threads.rs:12:16: 15:3], ()>::{closure#0}]"* %_1, %"[closure@std::thread::Builder::spawn_unchecked<[closure@three_threads.rs:12:16: 15:3], ()>::{closure#0}]"** %_1.dbg.spill, align 8
  call void @llvm.dbg.declare(metadata %"[closure@std::thread::Builder::spawn_unchecked<[closure@three_threads.rs:12:16: 15:3], ()>::{closure#0}]"** %_1.dbg.spill, metadata !1823, metadata !DIExpression()), !dbg !1824
  %1 = bitcast %"[closure@std::thread::Builder::spawn_unchecked<[closure@three_threads.rs:12:16: 15:3], ()>::{closure#0}]"* %_1 to i64**, !dbg !1824
; invoke core::ptr::drop_in_place<std::thread::Thread>
  invoke void @"_ZN4core3ptr40drop_in_place$LT$std..thread..Thread$GT$17h2abb1c9a01ac885cE"(i64** %1)
          to label %bb6 unwind label %cleanup, !dbg !1824

bb6:                                              ; preds = %start
  %2 = getelementptr inbounds %"[closure@std::thread::Builder::spawn_unchecked<[closure@three_threads.rs:12:16: 15:3], ()>::{closure#0}]", %"[closure@std::thread::Builder::spawn_unchecked<[closure@three_threads.rs:12:16: 15:3], ()>::{closure#0}]"* %_1, i32 0, i32 2, !dbg !1824
; invoke core::ptr::drop_in_place<core::option::Option<alloc::sync::Arc<std::sync::mutex::Mutex<alloc::vec::Vec<u8>>>>>
  invoke void @"_ZN4core3ptr129drop_in_place$LT$core..option..Option$LT$alloc..sync..Arc$LT$std..sync..mutex..Mutex$LT$alloc..vec..Vec$LT$u8$GT$$GT$$GT$$GT$$GT$17h77905d1796e37b8aE"(i64** %2)
          to label %bb5 unwind label %cleanup1, !dbg !1824

bb4:                                              ; preds = %cleanup
  %3 = getelementptr inbounds %"[closure@std::thread::Builder::spawn_unchecked<[closure@three_threads.rs:12:16: 15:3], ()>::{closure#0}]", %"[closure@std::thread::Builder::spawn_unchecked<[closure@three_threads.rs:12:16: 15:3], ()>::{closure#0}]"* %_1, i32 0, i32 2, !dbg !1824
; call core::ptr::drop_in_place<core::option::Option<alloc::sync::Arc<std::sync::mutex::Mutex<alloc::vec::Vec<u8>>>>>
  call void @"_ZN4core3ptr129drop_in_place$LT$core..option..Option$LT$alloc..sync..Arc$LT$std..sync..mutex..Mutex$LT$alloc..vec..Vec$LT$u8$GT$$GT$$GT$$GT$$GT$17h77905d1796e37b8aE"(i64** %3) #14, !dbg !1824
  br label %bb3, !dbg !1824

cleanup:                                          ; preds = %start
  %4 = landingpad { i8*, i32 }
          cleanup
  %5 = extractvalue { i8*, i32 } %4, 0
  %6 = extractvalue { i8*, i32 } %4, 1
  %7 = getelementptr inbounds { i8*, i32 }, { i8*, i32 }* %0, i32 0, i32 0
  store i8* %5, i8** %7, align 8
  %8 = getelementptr inbounds { i8*, i32 }, { i8*, i32 }* %0, i32 0, i32 1
  store i32 %6, i32* %8, align 8
  br label %bb4

bb3:                                              ; preds = %cleanup1, %bb4
  %9 = getelementptr inbounds %"[closure@std::thread::Builder::spawn_unchecked<[closure@three_threads.rs:12:16: 15:3], ()>::{closure#0}]", %"[closure@std::thread::Builder::spawn_unchecked<[closure@three_threads.rs:12:16: 15:3], ()>::{closure#0}]"* %_1, i32 0, i32 3, !dbg !1824
; call core::ptr::drop_in_place<alloc::sync::Arc<core::cell::UnsafeCell<core::option::Option<core::result::Result<(),alloc::boxed::Box<dyn core::any::Any+core::marker::Send>>>>>>
  call void @"_ZN4core3ptr212drop_in_place$LT$alloc..sync..Arc$LT$core..cell..UnsafeCell$LT$core..option..Option$LT$core..result..Result$LT$$LP$$RP$$C$alloc..boxed..Box$LT$dyn$u20$core..any..Any$u2b$core..marker..Send$GT$$GT$$GT$$GT$$GT$$GT$17hd930061a4e94938bE"(i64** %9) #14, !dbg !1824
  br label %bb1, !dbg !1824

bb5:                                              ; preds = %bb6
  %10 = getelementptr inbounds %"[closure@std::thread::Builder::spawn_unchecked<[closure@three_threads.rs:12:16: 15:3], ()>::{closure#0}]", %"[closure@std::thread::Builder::spawn_unchecked<[closure@three_threads.rs:12:16: 15:3], ()>::{closure#0}]"* %_1, i32 0, i32 3, !dbg !1824
; call core::ptr::drop_in_place<alloc::sync::Arc<core::cell::UnsafeCell<core::option::Option<core::result::Result<(),alloc::boxed::Box<dyn core::any::Any+core::marker::Send>>>>>>
  call void @"_ZN4core3ptr212drop_in_place$LT$alloc..sync..Arc$LT$core..cell..UnsafeCell$LT$core..option..Option$LT$core..result..Result$LT$$LP$$RP$$C$alloc..boxed..Box$LT$dyn$u20$core..any..Any$u2b$core..marker..Send$GT$$GT$$GT$$GT$$GT$$GT$17hd930061a4e94938bE"(i64** %10), !dbg !1824
  br label %bb2, !dbg !1824

cleanup1:                                         ; preds = %bb6
  %11 = landingpad { i8*, i32 }
          cleanup
  %12 = extractvalue { i8*, i32 } %11, 0
  %13 = extractvalue { i8*, i32 } %11, 1
  %14 = getelementptr inbounds { i8*, i32 }, { i8*, i32 }* %0, i32 0, i32 0
  store i8* %12, i8** %14, align 8
  %15 = getelementptr inbounds { i8*, i32 }, { i8*, i32 }* %0, i32 0, i32 1
  store i32 %13, i32* %15, align 8
  br label %bb3

bb1:                                              ; preds = %bb3
  %16 = bitcast { i8*, i32 }* %0 to i8**, !dbg !1824
  %17 = load i8*, i8** %16, align 8, !dbg !1824
  %18 = getelementptr inbounds { i8*, i32 }, { i8*, i32 }* %0, i32 0, i32 1, !dbg !1824
  %19 = load i32, i32* %18, align 8, !dbg !1824
  %20 = insertvalue { i8*, i32 } undef, i8* %17, 0, !dbg !1824
  %21 = insertvalue { i8*, i32 } %20, i32 %19, 1, !dbg !1824
  resume { i8*, i32 } %21, !dbg !1824

bb2:                                              ; preds = %bb5
  ret void, !dbg !1824
}

; core::ptr::drop_in_place<std::thread::Builder::spawn_unchecked<three_threads::main::{{closure}},()>::{{closure}}>
; Function Attrs: uwtable
define internal void @"_ZN4core3ptr154drop_in_place$LT$std..thread..Builder..spawn_unchecked$LT$three_threads..main..$u7b$$u7b$closure$u7d$$u7d$$C$$LP$$RP$$GT$..$u7b$$u7b$closure$u7d$$u7d$$GT$17h7fd9bcd37f8afae2E"(%"[closure@std::thread::Builder::spawn_unchecked<[closure@three_threads.rs:7:16: 10:3], ()>::{closure#0}]"* %_1) unnamed_addr #0 personality i32 (i32, i32, i64, %"unwind::libunwind::_Unwind_Exception"*, %"unwind::libunwind::_Unwind_Context"*)* @rust_eh_personality !dbg !1825 {
start:
  %0 = alloca { i8*, i32 }, align 8
  %_1.dbg.spill = alloca %"[closure@std::thread::Builder::spawn_unchecked<[closure@three_threads.rs:7:16: 10:3], ()>::{closure#0}]"*, align 8
  store %"[closure@std::thread::Builder::spawn_unchecked<[closure@three_threads.rs:7:16: 10:3], ()>::{closure#0}]"* %_1, %"[closure@std::thread::Builder::spawn_unchecked<[closure@three_threads.rs:7:16: 10:3], ()>::{closure#0}]"** %_1.dbg.spill, align 8
  call void @llvm.dbg.declare(metadata %"[closure@std::thread::Builder::spawn_unchecked<[closure@three_threads.rs:7:16: 10:3], ()>::{closure#0}]"** %_1.dbg.spill, metadata !1827, metadata !DIExpression()), !dbg !1828
  %1 = bitcast %"[closure@std::thread::Builder::spawn_unchecked<[closure@three_threads.rs:7:16: 10:3], ()>::{closure#0}]"* %_1 to i64**, !dbg !1828
; invoke core::ptr::drop_in_place<std::thread::Thread>
  invoke void @"_ZN4core3ptr40drop_in_place$LT$std..thread..Thread$GT$17h2abb1c9a01ac885cE"(i64** %1)
          to label %bb6 unwind label %cleanup, !dbg !1828

bb6:                                              ; preds = %start
  %2 = getelementptr inbounds %"[closure@std::thread::Builder::spawn_unchecked<[closure@three_threads.rs:7:16: 10:3], ()>::{closure#0}]", %"[closure@std::thread::Builder::spawn_unchecked<[closure@three_threads.rs:7:16: 10:3], ()>::{closure#0}]"* %_1, i32 0, i32 2, !dbg !1828
; invoke core::ptr::drop_in_place<core::option::Option<alloc::sync::Arc<std::sync::mutex::Mutex<alloc::vec::Vec<u8>>>>>
  invoke void @"_ZN4core3ptr129drop_in_place$LT$core..option..Option$LT$alloc..sync..Arc$LT$std..sync..mutex..Mutex$LT$alloc..vec..Vec$LT$u8$GT$$GT$$GT$$GT$$GT$17h77905d1796e37b8aE"(i64** %2)
          to label %bb5 unwind label %cleanup1, !dbg !1828

bb4:                                              ; preds = %cleanup
  %3 = getelementptr inbounds %"[closure@std::thread::Builder::spawn_unchecked<[closure@three_threads.rs:7:16: 10:3], ()>::{closure#0}]", %"[closure@std::thread::Builder::spawn_unchecked<[closure@three_threads.rs:7:16: 10:3], ()>::{closure#0}]"* %_1, i32 0, i32 2, !dbg !1828
; call core::ptr::drop_in_place<core::option::Option<alloc::sync::Arc<std::sync::mutex::Mutex<alloc::vec::Vec<u8>>>>>
  call void @"_ZN4core3ptr129drop_in_place$LT$core..option..Option$LT$alloc..sync..Arc$LT$std..sync..mutex..Mutex$LT$alloc..vec..Vec$LT$u8$GT$$GT$$GT$$GT$$GT$17h77905d1796e37b8aE"(i64** %3) #14, !dbg !1828
  br label %bb3, !dbg !1828

cleanup:                                          ; preds = %start
  %4 = landingpad { i8*, i32 }
          cleanup
  %5 = extractvalue { i8*, i32 } %4, 0
  %6 = extractvalue { i8*, i32 } %4, 1
  %7 = getelementptr inbounds { i8*, i32 }, { i8*, i32 }* %0, i32 0, i32 0
  store i8* %5, i8** %7, align 8
  %8 = getelementptr inbounds { i8*, i32 }, { i8*, i32 }* %0, i32 0, i32 1
  store i32 %6, i32* %8, align 8
  br label %bb4

bb3:                                              ; preds = %cleanup1, %bb4
  %9 = getelementptr inbounds %"[closure@std::thread::Builder::spawn_unchecked<[closure@three_threads.rs:7:16: 10:3], ()>::{closure#0}]", %"[closure@std::thread::Builder::spawn_unchecked<[closure@three_threads.rs:7:16: 10:3], ()>::{closure#0}]"* %_1, i32 0, i32 3, !dbg !1828
; call core::ptr::drop_in_place<alloc::sync::Arc<core::cell::UnsafeCell<core::option::Option<core::result::Result<(),alloc::boxed::Box<dyn core::any::Any+core::marker::Send>>>>>>
  call void @"_ZN4core3ptr212drop_in_place$LT$alloc..sync..Arc$LT$core..cell..UnsafeCell$LT$core..option..Option$LT$core..result..Result$LT$$LP$$RP$$C$alloc..boxed..Box$LT$dyn$u20$core..any..Any$u2b$core..marker..Send$GT$$GT$$GT$$GT$$GT$$GT$17hd930061a4e94938bE"(i64** %9) #14, !dbg !1828
  br label %bb1, !dbg !1828

bb5:                                              ; preds = %bb6
  %10 = getelementptr inbounds %"[closure@std::thread::Builder::spawn_unchecked<[closure@three_threads.rs:7:16: 10:3], ()>::{closure#0}]", %"[closure@std::thread::Builder::spawn_unchecked<[closure@three_threads.rs:7:16: 10:3], ()>::{closure#0}]"* %_1, i32 0, i32 3, !dbg !1828
; call core::ptr::drop_in_place<alloc::sync::Arc<core::cell::UnsafeCell<core::option::Option<core::result::Result<(),alloc::boxed::Box<dyn core::any::Any+core::marker::Send>>>>>>
  call void @"_ZN4core3ptr212drop_in_place$LT$alloc..sync..Arc$LT$core..cell..UnsafeCell$LT$core..option..Option$LT$core..result..Result$LT$$LP$$RP$$C$alloc..boxed..Box$LT$dyn$u20$core..any..Any$u2b$core..marker..Send$GT$$GT$$GT$$GT$$GT$$GT$17hd930061a4e94938bE"(i64** %10), !dbg !1828
  br label %bb2, !dbg !1828

cleanup1:                                         ; preds = %bb6
  %11 = landingpad { i8*, i32 }
          cleanup
  %12 = extractvalue { i8*, i32 } %11, 0
  %13 = extractvalue { i8*, i32 } %11, 1
  %14 = getelementptr inbounds { i8*, i32 }, { i8*, i32 }* %0, i32 0, i32 0
  store i8* %12, i8** %14, align 8
  %15 = getelementptr inbounds { i8*, i32 }, { i8*, i32 }* %0, i32 0, i32 1
  store i32 %13, i32* %15, align 8
  br label %bb3

bb1:                                              ; preds = %bb3
  %16 = bitcast { i8*, i32 }* %0 to i8**, !dbg !1828
  %17 = load i8*, i8** %16, align 8, !dbg !1828
  %18 = getelementptr inbounds { i8*, i32 }, { i8*, i32 }* %0, i32 0, i32 1, !dbg !1828
  %19 = load i32, i32* %18, align 8, !dbg !1828
  %20 = insertvalue { i8*, i32 } undef, i8* %17, 0, !dbg !1828
  %21 = insertvalue { i8*, i32 } %20, i32 %19, 1, !dbg !1828
  resume { i8*, i32 } %21, !dbg !1828

bb2:                                              ; preds = %bb5
  ret void, !dbg !1828
}

; core::ptr::drop_in_place<core::option::Option<core::result::Result<(),alloc::boxed::Box<dyn core::any::Any+core::marker::Send>>>>
; Function Attrs: uwtable
define internal void @"_ZN4core3ptr158drop_in_place$LT$core..option..Option$LT$core..result..Result$LT$$LP$$RP$$C$alloc..boxed..Box$LT$dyn$u20$core..any..Any$u2b$core..marker..Send$GT$$GT$$GT$$GT$17ha563eff3ef2195ccE"(%"std::option::Option<std::result::Result<(), std::boxed::Box<dyn std::any::Any + std::marker::Send>>>"* %_1) unnamed_addr #0 !dbg !1829 {
start:
  %_1.dbg.spill = alloca %"std::option::Option<std::result::Result<(), std::boxed::Box<dyn std::any::Any + std::marker::Send>>>"*, align 8
  store %"std::option::Option<std::result::Result<(), std::boxed::Box<dyn std::any::Any + std::marker::Send>>>"* %_1, %"std::option::Option<std::result::Result<(), std::boxed::Box<dyn std::any::Any + std::marker::Send>>>"** %_1.dbg.spill, align 8
  call void @llvm.dbg.declare(metadata %"std::option::Option<std::result::Result<(), std::boxed::Box<dyn std::any::Any + std::marker::Send>>>"** %_1.dbg.spill, metadata !1833, metadata !DIExpression()), !dbg !1834
  %0 = bitcast %"std::option::Option<std::result::Result<(), std::boxed::Box<dyn std::any::Any + std::marker::Send>>>"* %_1 to i64*, !dbg !1834
  %_2 = load i64, i64* %0, align 8, !dbg !1834, !range !852
  %1 = icmp eq i64 %_2, 0, !dbg !1834
  br i1 %1, label %bb1, label %bb2, !dbg !1834

bb1:                                              ; preds = %bb2, %start
  ret void, !dbg !1834

bb2:                                              ; preds = %start
  %2 = bitcast %"std::option::Option<std::result::Result<(), std::boxed::Box<dyn std::any::Any + std::marker::Send>>>"* %_1 to %"std::option::Option<std::result::Result<(), std::boxed::Box<dyn std::any::Any + std::marker::Send>>>::Some"*, !dbg !1834
  %3 = getelementptr inbounds %"std::option::Option<std::result::Result<(), std::boxed::Box<dyn std::any::Any + std::marker::Send>>>::Some", %"std::option::Option<std::result::Result<(), std::boxed::Box<dyn std::any::Any + std::marker::Send>>>::Some"* %2, i32 0, i32 1, !dbg !1834
; call core::ptr::drop_in_place<core::result::Result<(),alloc::boxed::Box<dyn core::any::Any+core::marker::Send>>>
  call void @"_ZN4core3ptr130drop_in_place$LT$core..result..Result$LT$$LP$$RP$$C$alloc..boxed..Box$LT$dyn$u20$core..any..Any$u2b$core..marker..Send$GT$$GT$$GT$17h4881e4ec5eb1fb94E"({ i8*, i8* }* %3), !dbg !1834
  br label %bb1, !dbg !1834
}

; core::ptr::drop_in_place<core::cell::UnsafeCell<core::option::Option<core::result::Result<(),alloc::boxed::Box<dyn core::any::Any+core::marker::Send>>>>>
; Function Attrs: uwtable
define internal void @"_ZN4core3ptr188drop_in_place$LT$core..cell..UnsafeCell$LT$core..option..Option$LT$core..result..Result$LT$$LP$$RP$$C$alloc..boxed..Box$LT$dyn$u20$core..any..Any$u2b$core..marker..Send$GT$$GT$$GT$$GT$$GT$17h7ee5143793a4b9feE"(%"std::cell::UnsafeCell<std::option::Option<std::result::Result<(), std::boxed::Box<dyn std::any::Any + std::marker::Send>>>>"* %_1) unnamed_addr #0 !dbg !1835 {
start:
  %_1.dbg.spill = alloca %"std::cell::UnsafeCell<std::option::Option<std::result::Result<(), std::boxed::Box<dyn std::any::Any + std::marker::Send>>>>"*, align 8
  store %"std::cell::UnsafeCell<std::option::Option<std::result::Result<(), std::boxed::Box<dyn std::any::Any + std::marker::Send>>>>"* %_1, %"std::cell::UnsafeCell<std::option::Option<std::result::Result<(), std::boxed::Box<dyn std::any::Any + std::marker::Send>>>>"** %_1.dbg.spill, align 8
  call void @llvm.dbg.declare(metadata %"std::cell::UnsafeCell<std::option::Option<std::result::Result<(), std::boxed::Box<dyn std::any::Any + std::marker::Send>>>>"** %_1.dbg.spill, metadata !1840, metadata !DIExpression()), !dbg !1841
  %0 = bitcast %"std::cell::UnsafeCell<std::option::Option<std::result::Result<(), std::boxed::Box<dyn std::any::Any + std::marker::Send>>>>"* %_1 to %"std::option::Option<std::result::Result<(), std::boxed::Box<dyn std::any::Any + std::marker::Send>>>"*, !dbg !1841
; call core::ptr::drop_in_place<core::option::Option<core::result::Result<(),alloc::boxed::Box<dyn core::any::Any+core::marker::Send>>>>
